
build/u5_cube.elf:     file format elf32-littlearm


Disassembly of section .isr_vector:

08000000 <g_pfnVectors>:
 8000000:	20270000 	eorcs	r0, r7, r0
 8000004:	08003cad 	stmdaeq	r0, {r0, r2, r3, r5, r7, sl, fp, ip, sp}
 8000008:	080006dd 	stmdaeq	r0, {r0, r2, r3, r4, r6, r7, r9, sl}
 800000c:	080006df 	stmdaeq	r0, {r0, r1, r2, r3, r4, r6, r7, r9, sl}
 8000010:	080006e1 	stmdaeq	r0, {r0, r5, r6, r7, r9, sl}
 8000014:	080006e3 	stmdaeq	r0, {r0, r1, r5, r6, r7, r9, sl}
 8000018:	080006e5 	stmdaeq	r0, {r0, r2, r5, r6, r7, r9, sl}
 800001c:	08003cfd 	stmdaeq	r0, {r0, r2, r3, r4, r5, r6, r7, sl, fp, ip, sp}
	...
 800002c:	080006e7 	stmdaeq	r0, {r0, r1, r2, r5, r6, r7, r9, sl}
 8000030:	080006e9 	stmdaeq	r0, {r0, r3, r5, r6, r7, r9, sl}
 8000034:	00000000 	andeq	r0, r0, r0
 8000038:	080006eb 	stmdaeq	r0, {r0, r1, r3, r5, r6, r7, r9, sl}
 800003c:	080006ed 	stmdaeq	r0, {r0, r2, r3, r5, r6, r7, r9, sl}
 8000040:	08003cfd 	stmdaeq	r0, {r0, r2, r3, r4, r5, r6, r7, sl, fp, ip, sp}
 8000044:	08003cfd 	stmdaeq	r0, {r0, r2, r3, r4, r5, r6, r7, sl, fp, ip, sp}
 8000048:	08003cfd 	stmdaeq	r0, {r0, r2, r3, r4, r5, r6, r7, sl, fp, ip, sp}
 800004c:	08003cfd 	stmdaeq	r0, {r0, r2, r3, r4, r5, r6, r7, sl, fp, ip, sp}
 8000050:	08003cfd 	stmdaeq	r0, {r0, r2, r3, r4, r5, r6, r7, sl, fp, ip, sp}
 8000054:	08003cfd 	stmdaeq	r0, {r0, r2, r3, r4, r5, r6, r7, sl, fp, ip, sp}
 8000058:	08003cfd 	stmdaeq	r0, {r0, r2, r3, r4, r5, r6, r7, sl, fp, ip, sp}
 800005c:	08003cfd 	stmdaeq	r0, {r0, r2, r3, r4, r5, r6, r7, sl, fp, ip, sp}
 8000060:	08003cfd 	stmdaeq	r0, {r0, r2, r3, r4, r5, r6, r7, sl, fp, ip, sp}
 8000064:	08003cfd 	stmdaeq	r0, {r0, r2, r3, r4, r5, r6, r7, sl, fp, ip, sp}
 8000068:	08003cfd 	stmdaeq	r0, {r0, r2, r3, r4, r5, r6, r7, sl, fp, ip, sp}
 800006c:	08003cfd 	stmdaeq	r0, {r0, r2, r3, r4, r5, r6, r7, sl, fp, ip, sp}
 8000070:	08003cfd 	stmdaeq	r0, {r0, r2, r3, r4, r5, r6, r7, sl, fp, ip, sp}
 8000074:	08003cfd 	stmdaeq	r0, {r0, r2, r3, r4, r5, r6, r7, sl, fp, ip, sp}
 8000078:	08003cfd 	stmdaeq	r0, {r0, r2, r3, r4, r5, r6, r7, sl, fp, ip, sp}
 800007c:	08003cfd 	stmdaeq	r0, {r0, r2, r3, r4, r5, r6, r7, sl, fp, ip, sp}
 8000080:	08003cfd 	stmdaeq	r0, {r0, r2, r3, r4, r5, r6, r7, sl, fp, ip, sp}
 8000084:	08003cfd 	stmdaeq	r0, {r0, r2, r3, r4, r5, r6, r7, sl, fp, ip, sp}
 8000088:	08003cfd 	stmdaeq	r0, {r0, r2, r3, r4, r5, r6, r7, sl, fp, ip, sp}
 800008c:	08003cfd 	stmdaeq	r0, {r0, r2, r3, r4, r5, r6, r7, sl, fp, ip, sp}
 8000090:	08003cfd 	stmdaeq	r0, {r0, r2, r3, r4, r5, r6, r7, sl, fp, ip, sp}
 8000094:	08003cfd 	stmdaeq	r0, {r0, r2, r3, r4, r5, r6, r7, sl, fp, ip, sp}
 8000098:	08003cfd 	stmdaeq	r0, {r0, r2, r3, r4, r5, r6, r7, sl, fp, ip, sp}
 800009c:	08003cfd 	stmdaeq	r0, {r0, r2, r3, r4, r5, r6, r7, sl, fp, ip, sp}
 80000a0:	08003cfd 	stmdaeq	r0, {r0, r2, r3, r4, r5, r6, r7, sl, fp, ip, sp}
 80000a4:	08003cfd 	stmdaeq	r0, {r0, r2, r3, r4, r5, r6, r7, sl, fp, ip, sp}
 80000a8:	08003cfd 	stmdaeq	r0, {r0, r2, r3, r4, r5, r6, r7, sl, fp, ip, sp}
 80000ac:	08003cfd 	stmdaeq	r0, {r0, r2, r3, r4, r5, r6, r7, sl, fp, ip, sp}
 80000b0:	08003cfd 	stmdaeq	r0, {r0, r2, r3, r4, r5, r6, r7, sl, fp, ip, sp}
 80000b4:	08003cfd 	stmdaeq	r0, {r0, r2, r3, r4, r5, r6, r7, sl, fp, ip, sp}
 80000b8:	08003cfd 	stmdaeq	r0, {r0, r2, r3, r4, r5, r6, r7, sl, fp, ip, sp}
 80000bc:	08003cfd 	stmdaeq	r0, {r0, r2, r3, r4, r5, r6, r7, sl, fp, ip, sp}
 80000c0:	08003cfd 	stmdaeq	r0, {r0, r2, r3, r4, r5, r6, r7, sl, fp, ip, sp}
 80000c4:	08003cfd 	stmdaeq	r0, {r0, r2, r3, r4, r5, r6, r7, sl, fp, ip, sp}
 80000c8:	08003cfd 	stmdaeq	r0, {r0, r2, r3, r4, r5, r6, r7, sl, fp, ip, sp}
 80000cc:	08003cfd 	stmdaeq	r0, {r0, r2, r3, r4, r5, r6, r7, sl, fp, ip, sp}
 80000d0:	08003cfd 	stmdaeq	r0, {r0, r2, r3, r4, r5, r6, r7, sl, fp, ip, sp}
 80000d4:	08003cfd 	stmdaeq	r0, {r0, r2, r3, r4, r5, r6, r7, sl, fp, ip, sp}
 80000d8:	08003cfd 	stmdaeq	r0, {r0, r2, r3, r4, r5, r6, r7, sl, fp, ip, sp}
 80000dc:	08003cfd 	stmdaeq	r0, {r0, r2, r3, r4, r5, r6, r7, sl, fp, ip, sp}
 80000e0:	08003cfd 	stmdaeq	r0, {r0, r2, r3, r4, r5, r6, r7, sl, fp, ip, sp}
 80000e4:	08003cfd 	stmdaeq	r0, {r0, r2, r3, r4, r5, r6, r7, sl, fp, ip, sp}
 80000e8:	08003cfd 	stmdaeq	r0, {r0, r2, r3, r4, r5, r6, r7, sl, fp, ip, sp}
 80000ec:	08003cfd 	stmdaeq	r0, {r0, r2, r3, r4, r5, r6, r7, sl, fp, ip, sp}
 80000f0:	08003cfd 	stmdaeq	r0, {r0, r2, r3, r4, r5, r6, r7, sl, fp, ip, sp}
 80000f4:	08003cfd 	stmdaeq	r0, {r0, r2, r3, r4, r5, r6, r7, sl, fp, ip, sp}
 80000f8:	08003cfd 	stmdaeq	r0, {r0, r2, r3, r4, r5, r6, r7, sl, fp, ip, sp}
 80000fc:	08003cfd 	stmdaeq	r0, {r0, r2, r3, r4, r5, r6, r7, sl, fp, ip, sp}
 8000100:	08003cfd 	stmdaeq	r0, {r0, r2, r3, r4, r5, r6, r7, sl, fp, ip, sp}
 8000104:	08003cfd 	stmdaeq	r0, {r0, r2, r3, r4, r5, r6, r7, sl, fp, ip, sp}
 8000108:	08003cfd 	stmdaeq	r0, {r0, r2, r3, r4, r5, r6, r7, sl, fp, ip, sp}
 800010c:	08003cfd 	stmdaeq	r0, {r0, r2, r3, r4, r5, r6, r7, sl, fp, ip, sp}
 8000110:	08003cfd 	stmdaeq	r0, {r0, r2, r3, r4, r5, r6, r7, sl, fp, ip, sp}
 8000114:	08003cfd 	stmdaeq	r0, {r0, r2, r3, r4, r5, r6, r7, sl, fp, ip, sp}
 8000118:	08003cfd 	stmdaeq	r0, {r0, r2, r3, r4, r5, r6, r7, sl, fp, ip, sp}
 800011c:	08003cfd 	stmdaeq	r0, {r0, r2, r3, r4, r5, r6, r7, sl, fp, ip, sp}
 8000120:	08003cfd 	stmdaeq	r0, {r0, r2, r3, r4, r5, r6, r7, sl, fp, ip, sp}
 8000124:	08003cfd 	stmdaeq	r0, {r0, r2, r3, r4, r5, r6, r7, sl, fp, ip, sp}
 8000128:	08003cfd 	stmdaeq	r0, {r0, r2, r3, r4, r5, r6, r7, sl, fp, ip, sp}
 800012c:	08003cfd 	stmdaeq	r0, {r0, r2, r3, r4, r5, r6, r7, sl, fp, ip, sp}
 8000130:	08003cfd 	stmdaeq	r0, {r0, r2, r3, r4, r5, r6, r7, sl, fp, ip, sp}
 8000134:	080006f5 	stmdaeq	r0, {r0, r2, r4, r5, r6, r7, r9, sl}
 8000138:	08003cfd 	stmdaeq	r0, {r0, r2, r3, r4, r5, r6, r7, sl, fp, ip, sp}
 800013c:	08003cfd 	stmdaeq	r0, {r0, r2, r3, r4, r5, r6, r7, sl, fp, ip, sp}
 8000140:	08003cfd 	stmdaeq	r0, {r0, r2, r3, r4, r5, r6, r7, sl, fp, ip, sp}
 8000144:	08003cfd 	stmdaeq	r0, {r0, r2, r3, r4, r5, r6, r7, sl, fp, ip, sp}
 8000148:	08003cfd 	stmdaeq	r0, {r0, r2, r3, r4, r5, r6, r7, sl, fp, ip, sp}
 800014c:	08003cfd 	stmdaeq	r0, {r0, r2, r3, r4, r5, r6, r7, sl, fp, ip, sp}
 8000150:	08003cfd 	stmdaeq	r0, {r0, r2, r3, r4, r5, r6, r7, sl, fp, ip, sp}
 8000154:	08003cfd 	stmdaeq	r0, {r0, r2, r3, r4, r5, r6, r7, sl, fp, ip, sp}
 8000158:	08003cfd 	stmdaeq	r0, {r0, r2, r3, r4, r5, r6, r7, sl, fp, ip, sp}
 800015c:	08003cfd 	stmdaeq	r0, {r0, r2, r3, r4, r5, r6, r7, sl, fp, ip, sp}
 8000160:	08003cfd 	stmdaeq	r0, {r0, r2, r3, r4, r5, r6, r7, sl, fp, ip, sp}
 8000164:	08003cfd 	stmdaeq	r0, {r0, r2, r3, r4, r5, r6, r7, sl, fp, ip, sp}
 8000168:	08003cfd 	stmdaeq	r0, {r0, r2, r3, r4, r5, r6, r7, sl, fp, ip, sp}
 800016c:	08003cfd 	stmdaeq	r0, {r0, r2, r3, r4, r5, r6, r7, sl, fp, ip, sp}
 8000170:	08003cfd 	stmdaeq	r0, {r0, r2, r3, r4, r5, r6, r7, sl, fp, ip, sp}
 8000174:	08003cfd 	stmdaeq	r0, {r0, r2, r3, r4, r5, r6, r7, sl, fp, ip, sp}
 8000178:	08003cfd 	stmdaeq	r0, {r0, r2, r3, r4, r5, r6, r7, sl, fp, ip, sp}
 800017c:	08003cfd 	stmdaeq	r0, {r0, r2, r3, r4, r5, r6, r7, sl, fp, ip, sp}
 8000180:	08003cfd 	stmdaeq	r0, {r0, r2, r3, r4, r5, r6, r7, sl, fp, ip, sp}
 8000184:	08003cfd 	stmdaeq	r0, {r0, r2, r3, r4, r5, r6, r7, sl, fp, ip, sp}
 8000188:	08003cfd 	stmdaeq	r0, {r0, r2, r3, r4, r5, r6, r7, sl, fp, ip, sp}
 800018c:	08003cfd 	stmdaeq	r0, {r0, r2, r3, r4, r5, r6, r7, sl, fp, ip, sp}
 8000190:	08003cfd 	stmdaeq	r0, {r0, r2, r3, r4, r5, r6, r7, sl, fp, ip, sp}
 8000194:	08003cfd 	stmdaeq	r0, {r0, r2, r3, r4, r5, r6, r7, sl, fp, ip, sp}
 8000198:	08003cfd 	stmdaeq	r0, {r0, r2, r3, r4, r5, r6, r7, sl, fp, ip, sp}
 800019c:	08003cfd 	stmdaeq	r0, {r0, r2, r3, r4, r5, r6, r7, sl, fp, ip, sp}
 80001a0:	08003cfd 	stmdaeq	r0, {r0, r2, r3, r4, r5, r6, r7, sl, fp, ip, sp}
 80001a4:	08003cfd 	stmdaeq	r0, {r0, r2, r3, r4, r5, r6, r7, sl, fp, ip, sp}
 80001a8:	08003cfd 	stmdaeq	r0, {r0, r2, r3, r4, r5, r6, r7, sl, fp, ip, sp}
 80001ac:	08003cfd 	stmdaeq	r0, {r0, r2, r3, r4, r5, r6, r7, sl, fp, ip, sp}
 80001b0:	08003cfd 	stmdaeq	r0, {r0, r2, r3, r4, r5, r6, r7, sl, fp, ip, sp}
 80001b4:	08003cfd 	stmdaeq	r0, {r0, r2, r3, r4, r5, r6, r7, sl, fp, ip, sp}
 80001b8:	08003cfd 	stmdaeq	r0, {r0, r2, r3, r4, r5, r6, r7, sl, fp, ip, sp}
 80001bc:	08003cfd 	stmdaeq	r0, {r0, r2, r3, r4, r5, r6, r7, sl, fp, ip, sp}
 80001c0:	08003cfd 	stmdaeq	r0, {r0, r2, r3, r4, r5, r6, r7, sl, fp, ip, sp}
 80001c4:	08003cfd 	stmdaeq	r0, {r0, r2, r3, r4, r5, r6, r7, sl, fp, ip, sp}
 80001c8:	08003cfd 	stmdaeq	r0, {r0, r2, r3, r4, r5, r6, r7, sl, fp, ip, sp}
 80001cc:	08003cfd 	stmdaeq	r0, {r0, r2, r3, r4, r5, r6, r7, sl, fp, ip, sp}
 80001d0:	08003cfd 	stmdaeq	r0, {r0, r2, r3, r4, r5, r6, r7, sl, fp, ip, sp}
 80001d4:	08003cfd 	stmdaeq	r0, {r0, r2, r3, r4, r5, r6, r7, sl, fp, ip, sp}
 80001d8:	08003cfd 	stmdaeq	r0, {r0, r2, r3, r4, r5, r6, r7, sl, fp, ip, sp}
 80001dc:	08003cfd 	stmdaeq	r0, {r0, r2, r3, r4, r5, r6, r7, sl, fp, ip, sp}
 80001e0:	08003cfd 	stmdaeq	r0, {r0, r2, r3, r4, r5, r6, r7, sl, fp, ip, sp}
 80001e4:	08003cfd 	stmdaeq	r0, {r0, r2, r3, r4, r5, r6, r7, sl, fp, ip, sp}
 80001e8:	08003cfd 	stmdaeq	r0, {r0, r2, r3, r4, r5, r6, r7, sl, fp, ip, sp}
 80001ec:	08003cfd 	stmdaeq	r0, {r0, r2, r3, r4, r5, r6, r7, sl, fp, ip, sp}
 80001f0:	08003cfd 	stmdaeq	r0, {r0, r2, r3, r4, r5, r6, r7, sl, fp, ip, sp}
 80001f4:	08003cfd 	stmdaeq	r0, {r0, r2, r3, r4, r5, r6, r7, sl, fp, ip, sp}
 80001f8:	08003cfd 	stmdaeq	r0, {r0, r2, r3, r4, r5, r6, r7, sl, fp, ip, sp}
 80001fc:	08003cfd 	stmdaeq	r0, {r0, r2, r3, r4, r5, r6, r7, sl, fp, ip, sp}
 8000200:	08003cfd 	stmdaeq	r0, {r0, r2, r3, r4, r5, r6, r7, sl, fp, ip, sp}
 8000204:	08003cfd 	stmdaeq	r0, {r0, r2, r3, r4, r5, r6, r7, sl, fp, ip, sp}
 8000208:	08003cfd 	stmdaeq	r0, {r0, r2, r3, r4, r5, r6, r7, sl, fp, ip, sp}
 800020c:	08003cfd 	stmdaeq	r0, {r0, r2, r3, r4, r5, r6, r7, sl, fp, ip, sp}
 8000210:	08003cfd 	stmdaeq	r0, {r0, r2, r3, r4, r5, r6, r7, sl, fp, ip, sp}
 8000214:	08003cfd 	stmdaeq	r0, {r0, r2, r3, r4, r5, r6, r7, sl, fp, ip, sp}
 8000218:	08003cfd 	stmdaeq	r0, {r0, r2, r3, r4, r5, r6, r7, sl, fp, ip, sp}
 800021c:	08003cfd 	stmdaeq	r0, {r0, r2, r3, r4, r5, r6, r7, sl, fp, ip, sp}
 8000220:	08003cfd 	stmdaeq	r0, {r0, r2, r3, r4, r5, r6, r7, sl, fp, ip, sp}
 8000224:	08003cfd 	stmdaeq	r0, {r0, r2, r3, r4, r5, r6, r7, sl, fp, ip, sp}
 8000228:	08003cfd 	stmdaeq	r0, {r0, r2, r3, r4, r5, r6, r7, sl, fp, ip, sp}
 800022c:	08003cfd 	stmdaeq	r0, {r0, r2, r3, r4, r5, r6, r7, sl, fp, ip, sp}
 8000230:	08003cfd 	stmdaeq	r0, {r0, r2, r3, r4, r5, r6, r7, sl, fp, ip, sp}
 8000234:	08003cfd 	stmdaeq	r0, {r0, r2, r3, r4, r5, r6, r7, sl, fp, ip, sp}
 8000238:	08003cfd 	stmdaeq	r0, {r0, r2, r3, r4, r5, r6, r7, sl, fp, ip, sp}
 800023c:	08003cfd 	stmdaeq	r0, {r0, r2, r3, r4, r5, r6, r7, sl, fp, ip, sp}
 8000240:	08003cfd 	stmdaeq	r0, {r0, r2, r3, r4, r5, r6, r7, sl, fp, ip, sp}
 8000244:	08003cfd 	stmdaeq	r0, {r0, r2, r3, r4, r5, r6, r7, sl, fp, ip, sp}
 8000248:	08003cfd 	stmdaeq	r0, {r0, r2, r3, r4, r5, r6, r7, sl, fp, ip, sp}
 800024c:	08003cfd 	stmdaeq	r0, {r0, r2, r3, r4, r5, r6, r7, sl, fp, ip, sp}
 8000250:	08003cfd 	stmdaeq	r0, {r0, r2, r3, r4, r5, r6, r7, sl, fp, ip, sp}
 8000254:	08003cfd 	stmdaeq	r0, {r0, r2, r3, r4, r5, r6, r7, sl, fp, ip, sp}
 8000258:	08003cfd 	stmdaeq	r0, {r0, r2, r3, r4, r5, r6, r7, sl, fp, ip, sp}
 800025c:	08003cfd 	stmdaeq	r0, {r0, r2, r3, r4, r5, r6, r7, sl, fp, ip, sp}
 8000260:	08003cfd 	stmdaeq	r0, {r0, r2, r3, r4, r5, r6, r7, sl, fp, ip, sp}
 8000264:	08003cfd 	stmdaeq	r0, {r0, r2, r3, r4, r5, r6, r7, sl, fp, ip, sp}
 8000268:	08003cfd 	stmdaeq	r0, {r0, r2, r3, r4, r5, r6, r7, sl, fp, ip, sp}
 800026c:	08003cfd 	stmdaeq	r0, {r0, r2, r3, r4, r5, r6, r7, sl, fp, ip, sp}
 8000270:	08003cfd 	stmdaeq	r0, {r0, r2, r3, r4, r5, r6, r7, sl, fp, ip, sp}

Disassembly of section .text:

08000274 <__do_global_dtors_aux>:
 8000274:	b510      	push	{r4, lr}
 8000276:	4c05      	ldr	r4, [pc, #20]	; (800028c <__do_global_dtors_aux+0x18>)
 8000278:	7823      	ldrb	r3, [r4, #0]
 800027a:	b933      	cbnz	r3, 800028a <__do_global_dtors_aux+0x16>
 800027c:	4b04      	ldr	r3, [pc, #16]	; (8000290 <__do_global_dtors_aux+0x1c>)
 800027e:	b113      	cbz	r3, 8000286 <__do_global_dtors_aux+0x12>
 8000280:	4804      	ldr	r0, [pc, #16]	; (8000294 <__do_global_dtors_aux+0x20>)
 8000282:	e000      	b.n	8000286 <__do_global_dtors_aux+0x12>
 8000284:	bf00      	nop
 8000286:	2301      	movs	r3, #1
 8000288:	7023      	strb	r3, [r4, #0]
 800028a:	bd10      	pop	{r4, pc}
 800028c:	2000000c 	andcs	r0, r0, ip
 8000290:	00000000 	andeq	r0, r0, r0
 8000294:	08003d58 	stmdaeq	r0, {r3, r4, r6, r8, sl, fp, ip, sp}

08000298 <frame_dummy>:
 8000298:	b508      	push	{r3, lr}
 800029a:	4b03      	ldr	r3, [pc, #12]	; (80002a8 <frame_dummy+0x10>)
 800029c:	b11b      	cbz	r3, 80002a6 <frame_dummy+0xe>
 800029e:	4903      	ldr	r1, [pc, #12]	; (80002ac <frame_dummy+0x14>)
 80002a0:	4803      	ldr	r0, [pc, #12]	; (80002b0 <frame_dummy+0x18>)
 80002a2:	e000      	b.n	80002a6 <frame_dummy+0xe>
 80002a4:	bf00      	nop
 80002a6:	bd08      	pop	{r3, pc}
 80002a8:	00000000 	andeq	r0, r0, r0
 80002ac:	20000010 	andcs	r0, r0, r0, lsl r0
 80002b0:	08003d58 	stmdaeq	r0, {r3, r4, r6, r8, sl, fp, ip, sp}

080002b4 <console_uart_tx>:
 80002b4:	4b03      	ldr	r3, [pc, #12]	; (80002c4 <console_uart_tx+0x10>)
 80002b6:	69db      	ldr	r3, [r3, #28]
 80002b8:	f013 0f80 	tst.w	r3, #128	; 0x80
 80002bc:	d0fa      	beq.n	80002b4 <console_uart_tx>
 80002be:	4b01      	ldr	r3, [pc, #4]	; (80002c4 <console_uart_tx+0x10>)
 80002c0:	6298      	str	r0, [r3, #40]	; 0x28
 80002c2:	4770      	bx	lr
 80002c4:	40013800 	andmi	r3, r1, r0, lsl #16

080002c8 <console_uart_tx_str>:
 80002c8:	b510      	push	{r4, lr}
 80002ca:	4604      	mov	r4, r0
 80002cc:	e002      	b.n	80002d4 <console_uart_tx_str+0xc>
 80002ce:	3401      	adds	r4, #1
 80002d0:	f7ff fff0 	bl	80002b4 <console_uart_tx>
 80002d4:	7820      	ldrb	r0, [r4, #0]
 80002d6:	2800      	cmp	r0, #0
 80002d8:	d1f9      	bne.n	80002ce <console_uart_tx_str+0x6>
 80002da:	bd10      	pop	{r4, pc}

080002dc <SystemPower_Config>:
 80002dc:	4b07      	ldr	r3, [pc, #28]	; (80002fc <SystemPower_Config+0x20>)
 80002de:	6ada      	ldr	r2, [r3, #44]	; 0x2c
 80002e0:	f042 0201 	orr.w	r2, r2, #1
 80002e4:	62da      	str	r2, [r3, #44]	; 0x2c
 80002e6:	689a      	ldr	r2, [r3, #8]
 80002e8:	f042 0202 	orr.w	r2, r2, #2
 80002ec:	609a      	str	r2, [r3, #8]
 80002ee:	4b03      	ldr	r3, [pc, #12]	; (80002fc <SystemPower_Config+0x20>)
 80002f0:	6bdb      	ldr	r3, [r3, #60]	; 0x3c
 80002f2:	f013 0f02 	tst.w	r3, #2
 80002f6:	d0fa      	beq.n	80002ee <SystemPower_Config+0x12>
 80002f8:	4770      	bx	lr
 80002fa:	bf00      	nop
 80002fc:	46020800 	strmi	r0, [r2], -r0, lsl #16

08000300 <MX_ICACHE_Init>:
 8000300:	4b04      	ldr	r3, [pc, #16]	; (8000314 <MX_ICACHE_Init+0x14>)
 8000302:	681a      	ldr	r2, [r3, #0]
 8000304:	f022 0204 	bic.w	r2, r2, #4
 8000308:	601a      	str	r2, [r3, #0]
 800030a:	681a      	ldr	r2, [r3, #0]
 800030c:	f042 0201 	orr.w	r2, r2, #1
 8000310:	601a      	str	r2, [r3, #0]
 8000312:	4770      	bx	lr
 8000314:	40030400 	andmi	r0, r3, r0, lsl #8

08000318 <MX_GPIO_Init>:
 8000318:	b5f0      	push	{r4, r5, r6, r7, lr}
 800031a:	b08d      	sub	sp, #52	; 0x34
 800031c:	2400      	movs	r4, #0
 800031e:	9406      	str	r4, [sp, #24]
 8000320:	9407      	str	r4, [sp, #28]
 8000322:	9408      	str	r4, [sp, #32]
 8000324:	9409      	str	r4, [sp, #36]	; 0x24
 8000326:	940a      	str	r4, [sp, #40]	; 0x28
 8000328:	940b      	str	r4, [sp, #44]	; 0x2c
 800032a:	4b2a      	ldr	r3, [pc, #168]	; (80003d4 <MX_GPIO_Init+0xbc>)
 800032c:	f8d3 208c 	ldr.w	r2, [r3, #140]	; 0x8c
 8000330:	f042 0204 	orr.w	r2, r2, #4
 8000334:	f8c3 208c 	str.w	r2, [r3, #140]	; 0x8c
 8000338:	f8d3 208c 	ldr.w	r2, [r3, #140]	; 0x8c
 800033c:	f002 0204 	and.w	r2, r2, #4
 8000340:	9205      	str	r2, [sp, #20]
 8000342:	9a05      	ldr	r2, [sp, #20]
 8000344:	f8d3 208c 	ldr.w	r2, [r3, #140]	; 0x8c
 8000348:	f042 0201 	orr.w	r2, r2, #1
 800034c:	f8c3 208c 	str.w	r2, [r3, #140]	; 0x8c
 8000350:	f8d3 208c 	ldr.w	r2, [r3, #140]	; 0x8c
 8000354:	f002 0201 	and.w	r2, r2, #1
 8000358:	9204      	str	r2, [sp, #16]
 800035a:	9a04      	ldr	r2, [sp, #16]
 800035c:	f8d3 208c 	ldr.w	r2, [r3, #140]	; 0x8c
 8000360:	f042 0208 	orr.w	r2, r2, #8
 8000364:	f8c3 208c 	str.w	r2, [r3, #140]	; 0x8c
 8000368:	f8d3 208c 	ldr.w	r2, [r3, #140]	; 0x8c
 800036c:	f002 0208 	and.w	r2, r2, #8
 8000370:	9203      	str	r2, [sp, #12]
 8000372:	9a03      	ldr	r2, [sp, #12]
 8000374:	f8d3 208c 	ldr.w	r2, [r3, #140]	; 0x8c
 8000378:	f442 7280 	orr.w	r2, r2, #256	; 0x100
 800037c:	f8c3 208c 	str.w	r2, [r3, #140]	; 0x8c
 8000380:	f8d3 208c 	ldr.w	r2, [r3, #140]	; 0x8c
 8000384:	f402 7280 	and.w	r2, r2, #256	; 0x100
 8000388:	9202      	str	r2, [sp, #8]
 800038a:	9a02      	ldr	r2, [sp, #8]
 800038c:	f8d3 208c 	ldr.w	r2, [r3, #140]	; 0x8c
 8000390:	f042 0280 	orr.w	r2, r2, #128	; 0x80
 8000394:	f8c3 208c 	str.w	r2, [r3, #140]	; 0x8c
 8000398:	f8d3 308c 	ldr.w	r3, [r3, #140]	; 0x8c
 800039c:	f003 0380 	and.w	r3, r3, #128	; 0x80
 80003a0:	9301      	str	r3, [sp, #4]
 80003a2:	9b01      	ldr	r3, [sp, #4]
 80003a4:	480c      	ldr	r0, [pc, #48]	; (80003d8 <MX_GPIO_Init+0xc0>)
 80003a6:	f44f 5300 	mov.w	r3, #8192	; 0x2000
 80003aa:	6283      	str	r3, [r0, #40]	; 0x28
 80003ac:	4d0b      	ldr	r5, [pc, #44]	; (80003dc <MX_GPIO_Init+0xc4>)
 80003ae:	2780      	movs	r7, #128	; 0x80
 80003b0:	62af      	str	r7, [r5, #40]	; 0x28
 80003b2:	9306      	str	r3, [sp, #24]
 80003b4:	2601      	movs	r6, #1
 80003b6:	9607      	str	r6, [sp, #28]
 80003b8:	a906      	add	r1, sp, #24
 80003ba:	f000 fa39 	bl	8000830 <LL_GPIO_Init>
 80003be:	9706      	str	r7, [sp, #24]
 80003c0:	9607      	str	r6, [sp, #28]
 80003c2:	9408      	str	r4, [sp, #32]
 80003c4:	9409      	str	r4, [sp, #36]	; 0x24
 80003c6:	940a      	str	r4, [sp, #40]	; 0x28
 80003c8:	a906      	add	r1, sp, #24
 80003ca:	4628      	mov	r0, r5
 80003cc:	f000 fa30 	bl	8000830 <LL_GPIO_Init>
 80003d0:	b00d      	add	sp, #52	; 0x34
 80003d2:	bdf0      	pop	{r4, r5, r6, r7, pc}
 80003d4:	46020c00 	strmi	r0, [r2], -r0, lsl #24
 80003d8:	42022000 	andmi	r2, r2, #0
 80003dc:	42020000 	andmi	r0, r2, #0

080003e0 <MX_USART1_UART_Init>:
 80003e0:	b510      	push	{r4, lr}
 80003e2:	b090      	sub	sp, #64	; 0x40
 80003e4:	2220      	movs	r2, #32
 80003e6:	2100      	movs	r1, #0
 80003e8:	eb0d 0002 	add.w	r0, sp, r2
 80003ec:	f003 fcac 	bl	8003d48 <memset>
 80003f0:	2400      	movs	r4, #0
 80003f2:	9402      	str	r4, [sp, #8]
 80003f4:	9403      	str	r4, [sp, #12]
 80003f6:	9404      	str	r4, [sp, #16]
 80003f8:	9405      	str	r4, [sp, #20]
 80003fa:	9406      	str	r4, [sp, #24]
 80003fc:	9407      	str	r4, [sp, #28]
 80003fe:	4a39      	ldr	r2, [pc, #228]	; (80004e4 <MX_USART1_UART_Init+0x104>)
 8000400:	f8d2 3ce0 	ldr.w	r3, [r2, #3296]	; 0xce0
 8000404:	f023 0303 	bic.w	r3, r3, #3
 8000408:	f043 0301 	orr.w	r3, r3, #1
 800040c:	f8c2 3ce0 	str.w	r3, [r2, #3296]	; 0xce0
 8000410:	4b35      	ldr	r3, [pc, #212]	; (80004e8 <MX_USART1_UART_Init+0x108>)
 8000412:	f8d3 20a4 	ldr.w	r2, [r3, #164]	; 0xa4
 8000416:	f442 4280 	orr.w	r2, r2, #16384	; 0x4000
 800041a:	f8c3 20a4 	str.w	r2, [r3, #164]	; 0xa4
 800041e:	f8d3 20a4 	ldr.w	r2, [r3, #164]	; 0xa4
 8000422:	f402 4280 	and.w	r2, r2, #16384	; 0x4000
 8000426:	9201      	str	r2, [sp, #4]
 8000428:	9a01      	ldr	r2, [sp, #4]
 800042a:	f8d3 208c 	ldr.w	r2, [r3, #140]	; 0x8c
 800042e:	f042 0201 	orr.w	r2, r2, #1
 8000432:	f8c3 208c 	str.w	r2, [r3, #140]	; 0x8c
 8000436:	f8d3 308c 	ldr.w	r3, [r3, #140]	; 0x8c
 800043a:	f003 0301 	and.w	r3, r3, #1
 800043e:	9300      	str	r3, [sp, #0]
 8000440:	9b00      	ldr	r3, [sp, #0]
 8000442:	f44f 63c0 	mov.w	r3, #1536	; 0x600
 8000446:	9302      	str	r3, [sp, #8]
 8000448:	2302      	movs	r3, #2
 800044a:	9303      	str	r3, [sp, #12]
 800044c:	9404      	str	r4, [sp, #16]
 800044e:	9405      	str	r4, [sp, #20]
 8000450:	9406      	str	r4, [sp, #24]
 8000452:	2307      	movs	r3, #7
 8000454:	9307      	str	r3, [sp, #28]
 8000456:	a902      	add	r1, sp, #8
 8000458:	4824      	ldr	r0, [pc, #144]	; (80004ec <MX_USART1_UART_Init+0x10c>)
 800045a:	f000 f9e9 	bl	8000830 <LL_GPIO_Init>
 800045e:	4b24      	ldr	r3, [pc, #144]	; (80004f0 <MX_USART1_UART_Init+0x110>)
 8000460:	68db      	ldr	r3, [r3, #12]
 8000462:	4b24      	ldr	r3, [pc, #144]	; (80004f4 <MX_USART1_UART_Init+0x114>)
 8000464:	f883 433d 	strb.w	r4, [r3, #829]	; 0x33d
 8000468:	f04f 5200 	mov.w	r2, #536870912	; 0x20000000
 800046c:	605a      	str	r2, [r3, #4]
 800046e:	9408      	str	r4, [sp, #32]
 8000470:	f44f 3361 	mov.w	r3, #230400	; 0x38400
 8000474:	9309      	str	r3, [sp, #36]	; 0x24
 8000476:	940a      	str	r4, [sp, #40]	; 0x28
 8000478:	940b      	str	r4, [sp, #44]	; 0x2c
 800047a:	940c      	str	r4, [sp, #48]	; 0x30
 800047c:	2308      	movs	r3, #8
 800047e:	930d      	str	r3, [sp, #52]	; 0x34
 8000480:	940e      	str	r4, [sp, #56]	; 0x38
 8000482:	940f      	str	r4, [sp, #60]	; 0x3c
 8000484:	a908      	add	r1, sp, #32
 8000486:	481c      	ldr	r0, [pc, #112]	; (80004f8 <MX_USART1_UART_Init+0x118>)
 8000488:	f003 f924 	bl	80036d4 <LL_USART_Init>
 800048c:	4b1b      	ldr	r3, [pc, #108]	; (80004fc <MX_USART1_UART_Init+0x11c>)
 800048e:	e853 2f00 	ldrex	r2, [r3]
 8000492:	f022 4260 	bic.w	r2, r2, #3758096384	; 0xe0000000
 8000496:	e843 2100 	strex	r1, r2, [r3]
 800049a:	2900      	cmp	r1, #0
 800049c:	d1f6      	bne.n	800048c <MX_USART1_UART_Init+0xac>
 800049e:	e853 2f00 	ldrex	r2, [r3]
 80004a2:	f022 6260 	bic.w	r2, r2, #234881024	; 0xe000000
 80004a6:	e843 2100 	strex	r1, r2, [r3]
 80004aa:	2900      	cmp	r1, #0
 80004ac:	d1f7      	bne.n	800049e <MX_USART1_UART_Init+0xbe>
 80004ae:	4b12      	ldr	r3, [pc, #72]	; (80004f8 <MX_USART1_UART_Init+0x118>)
 80004b0:	681a      	ldr	r2, [r3, #0]
 80004b2:	f042 5200 	orr.w	r2, r2, #536870912	; 0x20000000
 80004b6:	601a      	str	r2, [r3, #0]
 80004b8:	689a      	ldr	r2, [r3, #8]
 80004ba:	f442 5280 	orr.w	r2, r2, #4096	; 0x1000
 80004be:	609a      	str	r2, [r3, #8]
 80004c0:	689a      	ldr	r2, [r3, #8]
 80004c2:	f422 5200 	bic.w	r2, r2, #8192	; 0x2000
 80004c6:	609a      	str	r2, [r3, #8]
 80004c8:	685a      	ldr	r2, [r3, #4]
 80004ca:	f422 4290 	bic.w	r2, r2, #18432	; 0x4800
 80004ce:	605a      	str	r2, [r3, #4]
 80004d0:	689a      	ldr	r2, [r3, #8]
 80004d2:	f022 022a 	bic.w	r2, r2, #42	; 0x2a
 80004d6:	609a      	str	r2, [r3, #8]
 80004d8:	681a      	ldr	r2, [r3, #0]
 80004da:	f042 0201 	orr.w	r2, r2, #1
 80004de:	601a      	str	r2, [r3, #0]
 80004e0:	b010      	add	sp, #64	; 0x40
 80004e2:	bd10      	pop	{r4, pc}
 80004e4:	46020000 	strmi	r0, [r2], -r0
 80004e8:	46020c00 	strmi	r0, [r2], -r0, lsl #24
 80004ec:	42020000 	andmi	r0, r2, #0
 80004f0:	e000ed00 	and	lr, r0, r0, lsl #26
 80004f4:	e000e100 	and	lr, r0, r0, lsl #2
 80004f8:	40013800 	andmi	r3, r1, r0, lsl #16
 80004fc:	40013808 	andmi	r3, r1, r8, lsl #16

08000500 <Error_Handler>:
 8000500:	b672      	cpsid	i
 8000502:	e7fe      	b.n	8000502 <Error_Handler+0x2>

08000504 <MX_SDMMC1_SD_Init>:
 8000504:	b508      	push	{r3, lr}
 8000506:	4808      	ldr	r0, [pc, #32]	; (8000528 <MX_SDMMC1_SD_Init+0x24>)
 8000508:	4b08      	ldr	r3, [pc, #32]	; (800052c <MX_SDMMC1_SD_Init+0x28>)
 800050a:	6003      	str	r3, [r0, #0]
 800050c:	2300      	movs	r3, #0
 800050e:	6043      	str	r3, [r0, #4]
 8000510:	6083      	str	r3, [r0, #8]
 8000512:	f44f 4280 	mov.w	r2, #16384	; 0x4000
 8000516:	60c2      	str	r2, [r0, #12]
 8000518:	6103      	str	r3, [r0, #16]
 800051a:	6143      	str	r3, [r0, #20]
 800051c:	f003 f87b 	bl	8003616 <HAL_SD_Init>
 8000520:	b900      	cbnz	r0, 8000524 <MX_SDMMC1_SD_Init+0x20>
 8000522:	bd08      	pop	{r3, pc}
 8000524:	f7ff ffec 	bl	8000500 <Error_Handler>
 8000528:	20000028 	andcs	r0, r0, r8, lsr #32
 800052c:	420c8000 	andmi	r8, ip, #0

08000530 <SystemClock_Config>:
 8000530:	b500      	push	{lr}
 8000532:	b083      	sub	sp, #12
 8000534:	4a47      	ldr	r2, [pc, #284]	; (8000654 <SystemClock_Config+0x124>)
 8000536:	6813      	ldr	r3, [r2, #0]
 8000538:	f023 030f 	bic.w	r3, r3, #15
 800053c:	f043 0304 	orr.w	r3, r3, #4
 8000540:	6013      	str	r3, [r2, #0]
 8000542:	4b44      	ldr	r3, [pc, #272]	; (8000654 <SystemClock_Config+0x124>)
 8000544:	681b      	ldr	r3, [r3, #0]
 8000546:	f003 030f 	and.w	r3, r3, #15
 800054a:	2b04      	cmp	r3, #4
 800054c:	d1f9      	bne.n	8000542 <SystemClock_Config+0x12>
 800054e:	4a42      	ldr	r2, [pc, #264]	; (8000658 <SystemClock_Config+0x128>)
 8000550:	68d3      	ldr	r3, [r2, #12]
 8000552:	f443 3340 	orr.w	r3, r3, #196608	; 0x30000
 8000556:	60d3      	str	r3, [r2, #12]
 8000558:	4b3f      	ldr	r3, [pc, #252]	; (8000658 <SystemClock_Config+0x128>)
 800055a:	68db      	ldr	r3, [r3, #12]
 800055c:	f413 4f00 	tst.w	r3, #32768	; 0x8000
 8000560:	d0fa      	beq.n	8000558 <SystemClock_Config+0x28>
 8000562:	4a3e      	ldr	r2, [pc, #248]	; (800065c <SystemClock_Config+0x12c>)
 8000564:	6813      	ldr	r3, [r2, #0]
 8000566:	f443 3380 	orr.w	r3, r3, #65536	; 0x10000
 800056a:	6013      	str	r3, [r2, #0]
 800056c:	4b3b      	ldr	r3, [pc, #236]	; (800065c <SystemClock_Config+0x12c>)
 800056e:	681b      	ldr	r3, [r3, #0]
 8000570:	f413 3f00 	tst.w	r3, #131072	; 0x20000
 8000574:	d0fa      	beq.n	800056c <SystemClock_Config+0x3c>
 8000576:	4b39      	ldr	r3, [pc, #228]	; (800065c <SystemClock_Config+0x12c>)
 8000578:	6a9a      	ldr	r2, [r3, #40]	; 0x28
 800057a:	f422 6270 	bic.w	r2, r2, #3840	; 0xf00
 800057e:	f022 0203 	bic.w	r2, r2, #3
 8000582:	f042 0203 	orr.w	r2, r2, #3
 8000586:	629a      	str	r2, [r3, #40]	; 0x28
 8000588:	6b59      	ldr	r1, [r3, #52]	; 0x34
 800058a:	4a35      	ldr	r2, [pc, #212]	; (8000660 <SystemClock_Config+0x130>)
 800058c:	400a      	ands	r2, r1
 800058e:	f042 0209 	orr.w	r2, r2, #9
 8000592:	635a      	str	r2, [r3, #52]	; 0x34
 8000594:	6a9a      	ldr	r2, [r3, #40]	; 0x28
 8000596:	f422 6270 	bic.w	r2, r2, #3840	; 0xf00
 800059a:	f022 0203 	bic.w	r2, r2, #3
 800059e:	f042 0203 	orr.w	r2, r2, #3
 80005a2:	629a      	str	r2, [r3, #40]	; 0x28
 80005a4:	6b5a      	ldr	r2, [r3, #52]	; 0x34
 80005a6:	0c12      	lsrs	r2, r2, #16
 80005a8:	0412      	lsls	r2, r2, #16
 80005aa:	f442 62c1 	orr.w	r2, r2, #1544	; 0x608
 80005ae:	f042 0201 	orr.w	r2, r2, #1
 80005b2:	635a      	str	r2, [r3, #52]	; 0x34
 80005b4:	6a9a      	ldr	r2, [r3, #40]	; 0x28
 80005b6:	f442 2280 	orr.w	r2, r2, #262144	; 0x40000
 80005ba:	629a      	str	r2, [r3, #40]	; 0x28
 80005bc:	6a9a      	ldr	r2, [r3, #40]	; 0x28
 80005be:	f442 3280 	orr.w	r2, r2, #65536	; 0x10000
 80005c2:	629a      	str	r2, [r3, #40]	; 0x28
 80005c4:	6a9a      	ldr	r2, [r3, #40]	; 0x28
 80005c6:	f422 4270 	bic.w	r2, r2, #61440	; 0xf000
 80005ca:	629a      	str	r2, [r3, #40]	; 0x28
 80005cc:	6a9a      	ldr	r2, [r3, #40]	; 0x28
 80005ce:	f042 020c 	orr.w	r2, r2, #12
 80005d2:	629a      	str	r2, [r3, #40]	; 0x28
 80005d4:	681a      	ldr	r2, [r3, #0]
 80005d6:	f042 7280 	orr.w	r2, r2, #16777216	; 0x1000000
 80005da:	601a      	str	r2, [r3, #0]
 80005dc:	4b1f      	ldr	r3, [pc, #124]	; (800065c <SystemClock_Config+0x12c>)
 80005de:	681b      	ldr	r3, [r3, #0]
 80005e0:	f013 7f00 	tst.w	r3, #33554432	; 0x2000000
 80005e4:	d0fa      	beq.n	80005dc <SystemClock_Config+0xac>
 80005e6:	4a1d      	ldr	r2, [pc, #116]	; (800065c <SystemClock_Config+0x12c>)
 80005e8:	6a13      	ldr	r3, [r2, #32]
 80005ea:	f023 030f 	bic.w	r3, r3, #15
 80005ee:	f043 0308 	orr.w	r3, r3, #8
 80005f2:	6213      	str	r3, [r2, #32]
 80005f4:	69d3      	ldr	r3, [r2, #28]
 80005f6:	f043 0303 	orr.w	r3, r3, #3
 80005fa:	61d3      	str	r3, [r2, #28]
 80005fc:	4b17      	ldr	r3, [pc, #92]	; (800065c <SystemClock_Config+0x12c>)
 80005fe:	69db      	ldr	r3, [r3, #28]
 8000600:	f003 030c 	and.w	r3, r3, #12
 8000604:	2b0c      	cmp	r3, #12
 8000606:	d1f9      	bne.n	80005fc <SystemClock_Config+0xcc>
 8000608:	2350      	movs	r3, #80	; 0x50
 800060a:	9301      	str	r3, [sp, #4]
 800060c:	e002      	b.n	8000614 <SystemClock_Config+0xe4>
 800060e:	9b01      	ldr	r3, [sp, #4]
 8000610:	3b01      	subs	r3, #1
 8000612:	9301      	str	r3, [sp, #4]
 8000614:	9b01      	ldr	r3, [sp, #4]
 8000616:	2b00      	cmp	r3, #0
 8000618:	d1f9      	bne.n	800060e <SystemClock_Config+0xde>
 800061a:	4b10      	ldr	r3, [pc, #64]	; (800065c <SystemClock_Config+0x12c>)
 800061c:	6a1a      	ldr	r2, [r3, #32]
 800061e:	f022 020f 	bic.w	r2, r2, #15
 8000622:	621a      	str	r2, [r3, #32]
 8000624:	6a1a      	ldr	r2, [r3, #32]
 8000626:	f022 0270 	bic.w	r2, r2, #112	; 0x70
 800062a:	621a      	str	r2, [r3, #32]
 800062c:	6a1a      	ldr	r2, [r3, #32]
 800062e:	f422 62e0 	bic.w	r2, r2, #1792	; 0x700
 8000632:	621a      	str	r2, [r3, #32]
 8000634:	6a5a      	ldr	r2, [r3, #36]	; 0x24
 8000636:	f022 0270 	bic.w	r2, r2, #112	; 0x70
 800063a:	625a      	str	r2, [r3, #36]	; 0x24
 800063c:	4809      	ldr	r0, [pc, #36]	; (8000664 <SystemClock_Config+0x134>)
 800063e:	f000 f8f1 	bl	8000824 <LL_SetSystemCoreClock>
 8000642:	200f      	movs	r0, #15
 8000644:	f000 f9bc 	bl	80009c0 <HAL_InitTick>
 8000648:	b910      	cbnz	r0, 8000650 <SystemClock_Config+0x120>
 800064a:	b003      	add	sp, #12
 800064c:	f85d fb04 	ldr.w	pc, [sp], #4
 8000650:	f7ff ff56 	bl	8000500 <Error_Handler>
 8000654:	40022000 	andmi	r2, r2, r0
 8000658:	46020800 	strmi	r0, [r2], -r0, lsl #16
 800065c:	46020c00 	strmi	r0, [r2], -r0, lsl #24
 8000660:	80fffe00 	rscshi	pc, pc, r0, lsl #28
 8000664:	09896800 	stmibeq	r9, {fp, sp, lr}

08000668 <main>:
 8000668:	b500      	push	{lr}
 800066a:	b083      	sub	sp, #12
 800066c:	f000 f9d0 	bl	8000a10 <HAL_Init>
 8000670:	4b16      	ldr	r3, [pc, #88]	; (80006cc <main+0x64>)
 8000672:	f8d3 2094 	ldr.w	r2, [r3, #148]	; 0x94
 8000676:	f042 0204 	orr.w	r2, r2, #4
 800067a:	f8c3 2094 	str.w	r2, [r3, #148]	; 0x94
 800067e:	f8d3 3094 	ldr.w	r3, [r3, #148]	; 0x94
 8000682:	f003 0304 	and.w	r3, r3, #4
 8000686:	9301      	str	r3, [sp, #4]
 8000688:	9b01      	ldr	r3, [sp, #4]
 800068a:	f7ff ff51 	bl	8000530 <SystemClock_Config>
 800068e:	f7ff fe25 	bl	80002dc <SystemPower_Config>
 8000692:	f7ff fe41 	bl	8000318 <MX_GPIO_Init>
 8000696:	f7ff fe33 	bl	8000300 <MX_ICACHE_Init>
 800069a:	f7ff fea1 	bl	80003e0 <MX_USART1_UART_Init>
 800069e:	f7ff ff31 	bl	8000504 <MX_SDMMC1_SD_Init>
 80006a2:	480b      	ldr	r0, [pc, #44]	; (80006d0 <main+0x68>)
 80006a4:	f7ff fe10 	bl	80002c8 <console_uart_tx_str>
 80006a8:	480a      	ldr	r0, [pc, #40]	; (80006d4 <main+0x6c>)
 80006aa:	f7ff fe0d 	bl	80002c8 <console_uart_tx_str>
 80006ae:	490a      	ldr	r1, [pc, #40]	; (80006d8 <main+0x70>)
 80006b0:	694b      	ldr	r3, [r1, #20]
 80006b2:	041a      	lsls	r2, r3, #16
 80006b4:	f402 0200 	and.w	r2, r2, #8388608	; 0x800000
 80006b8:	43db      	mvns	r3, r3
 80006ba:	f003 0380 	and.w	r3, r3, #128	; 0x80
 80006be:	4313      	orrs	r3, r2
 80006c0:	618b      	str	r3, [r1, #24]
 80006c2:	f44f 707a 	mov.w	r0, #1000	; 0x3e8
 80006c6:	f000 f897 	bl	80007f8 <LL_mDelay>
 80006ca:	e7ed      	b.n	80006a8 <main+0x40>
 80006cc:	46020c00 	strmi	r0, [r2], -r0, lsl #24
 80006d0:	08003d70 	stmdaeq	r0, {r4, r5, r6, r8, sl, fp, ip, sp}
 80006d4:	08003d78 	stmdaeq	r0, {r3, r4, r5, r6, r8, sl, fp, ip, sp}
 80006d8:	42020000 	andmi	r0, r2, #0

080006dc <NMI_Handler>:
 80006dc:	e7fe      	b.n	80006dc <NMI_Handler>

080006de <HardFault_Handler>:
 80006de:	e7fe      	b.n	80006de <HardFault_Handler>

080006e0 <MemManage_Handler>:
 80006e0:	e7fe      	b.n	80006e0 <MemManage_Handler>

080006e2 <BusFault_Handler>:
 80006e2:	e7fe      	b.n	80006e2 <BusFault_Handler>

080006e4 <UsageFault_Handler>:
 80006e4:	e7fe      	b.n	80006e4 <UsageFault_Handler>

080006e6 <SVC_Handler>:
 80006e6:	4770      	bx	lr

080006e8 <DebugMon_Handler>:
 80006e8:	4770      	bx	lr

080006ea <PendSV_Handler>:
 80006ea:	4770      	bx	lr

080006ec <SysTick_Handler>:
 80006ec:	b508      	push	{r3, lr}
 80006ee:	f000 f9b7 	bl	8000a60 <HAL_IncTick>
 80006f2:	bd08      	pop	{r3, pc}

080006f4 <USART1_IRQHandler>:
 80006f4:	4770      	bx	lr
	...

080006f8 <SystemInit>:
 80006f8:	480e      	ldr	r0, [pc, #56]	; (8000734 <SystemInit+0x3c>)
 80006fa:	f8d0 3088 	ldr.w	r3, [r0, #136]	; 0x88
 80006fe:	f443 0370 	orr.w	r3, r3, #15728640	; 0xf00000
 8000702:	f8c0 3088 	str.w	r3, [r0, #136]	; 0x88
 8000706:	4b0c      	ldr	r3, [pc, #48]	; (8000738 <SystemInit+0x40>)
 8000708:	2201      	movs	r2, #1
 800070a:	601a      	str	r2, [r3, #0]
 800070c:	2200      	movs	r2, #0
 800070e:	61da      	str	r2, [r3, #28]
 8000710:	621a      	str	r2, [r3, #32]
 8000712:	625a      	str	r2, [r3, #36]	; 0x24
 8000714:	6819      	ldr	r1, [r3, #0]
 8000716:	f021 51a8 	bic.w	r1, r1, #352321536	; 0x15000000
 800071a:	f421 2110 	bic.w	r1, r1, #589824	; 0x90000
 800071e:	6019      	str	r1, [r3, #0]
 8000720:	629a      	str	r2, [r3, #40]	; 0x28
 8000722:	6819      	ldr	r1, [r3, #0]
 8000724:	f421 2180 	bic.w	r1, r1, #262144	; 0x40000
 8000728:	6019      	str	r1, [r3, #0]
 800072a:	651a      	str	r2, [r3, #80]	; 0x50
 800072c:	f04f 6300 	mov.w	r3, #134217728	; 0x8000000
 8000730:	6083      	str	r3, [r0, #8]
 8000732:	4770      	bx	lr
 8000734:	e000ed00 	and	lr, r0, r0, lsl #26
 8000738:	46020c00 	strmi	r0, [r2], -r0, lsl #24

0800073c <HAL_MspInit>:
 800073c:	4770      	bx	lr
	...

08000740 <HAL_SD_MspInit>:
 8000740:	b530      	push	{r4, r5, lr}
 8000742:	b089      	sub	sp, #36	; 0x24
 8000744:	2300      	movs	r3, #0
 8000746:	9303      	str	r3, [sp, #12]
 8000748:	9304      	str	r3, [sp, #16]
 800074a:	9305      	str	r3, [sp, #20]
 800074c:	9306      	str	r3, [sp, #24]
 800074e:	9307      	str	r3, [sp, #28]
 8000750:	6802      	ldr	r2, [r0, #0]
 8000752:	4b25      	ldr	r3, [pc, #148]	; (80007e8 <HAL_SD_MspInit+0xa8>)
 8000754:	429a      	cmp	r2, r3
 8000756:	d001      	beq.n	800075c <HAL_SD_MspInit+0x1c>
 8000758:	b009      	add	sp, #36	; 0x24
 800075a:	bd30      	pop	{r4, r5, pc}
 800075c:	4b23      	ldr	r3, [pc, #140]	; (80007ec <HAL_SD_MspInit+0xac>)
 800075e:	f8d3 20e4 	ldr.w	r2, [r3, #228]	; 0xe4
 8000762:	f442 4280 	orr.w	r2, r2, #16384	; 0x4000
 8000766:	f8c3 20e4 	str.w	r2, [r3, #228]	; 0xe4
 800076a:	f8d3 208c 	ldr.w	r2, [r3, #140]	; 0x8c
 800076e:	f042 6200 	orr.w	r2, r2, #134217728	; 0x8000000
 8000772:	f8c3 208c 	str.w	r2, [r3, #140]	; 0x8c
 8000776:	f8d3 208c 	ldr.w	r2, [r3, #140]	; 0x8c
 800077a:	f002 6200 	and.w	r2, r2, #134217728	; 0x8000000
 800077e:	9200      	str	r2, [sp, #0]
 8000780:	9a00      	ldr	r2, [sp, #0]
 8000782:	f8d3 208c 	ldr.w	r2, [r3, #140]	; 0x8c
 8000786:	f042 0204 	orr.w	r2, r2, #4
 800078a:	f8c3 208c 	str.w	r2, [r3, #140]	; 0x8c
 800078e:	f8d3 208c 	ldr.w	r2, [r3, #140]	; 0x8c
 8000792:	f002 0204 	and.w	r2, r2, #4
 8000796:	9201      	str	r2, [sp, #4]
 8000798:	9a01      	ldr	r2, [sp, #4]
 800079a:	f8d3 208c 	ldr.w	r2, [r3, #140]	; 0x8c
 800079e:	f042 0208 	orr.w	r2, r2, #8
 80007a2:	f8c3 208c 	str.w	r2, [r3, #140]	; 0x8c
 80007a6:	f8d3 308c 	ldr.w	r3, [r3, #140]	; 0x8c
 80007aa:	f003 0308 	and.w	r3, r3, #8
 80007ae:	9302      	str	r3, [sp, #8]
 80007b0:	9b02      	ldr	r3, [sp, #8]
 80007b2:	f44f 53f8 	mov.w	r3, #7936	; 0x1f00
 80007b6:	9303      	str	r3, [sp, #12]
 80007b8:	2402      	movs	r4, #2
 80007ba:	9404      	str	r4, [sp, #16]
 80007bc:	9406      	str	r4, [sp, #24]
 80007be:	250c      	movs	r5, #12
 80007c0:	9507      	str	r5, [sp, #28]
 80007c2:	eb0d 0105 	add.w	r1, sp, r5
 80007c6:	480a      	ldr	r0, [pc, #40]	; (80007f0 <HAL_SD_MspInit+0xb0>)
 80007c8:	f001 fe34 	bl	8002434 <HAL_GPIO_Init>
 80007cc:	2304      	movs	r3, #4
 80007ce:	9303      	str	r3, [sp, #12]
 80007d0:	9404      	str	r4, [sp, #16]
 80007d2:	2300      	movs	r3, #0
 80007d4:	9305      	str	r3, [sp, #20]
 80007d6:	9406      	str	r4, [sp, #24]
 80007d8:	9507      	str	r5, [sp, #28]
 80007da:	eb0d 0105 	add.w	r1, sp, r5
 80007de:	4805      	ldr	r0, [pc, #20]	; (80007f4 <HAL_SD_MspInit+0xb4>)
 80007e0:	f001 fe28 	bl	8002434 <HAL_GPIO_Init>
 80007e4:	e7b8      	b.n	8000758 <HAL_SD_MspInit+0x18>
 80007e6:	bf00      	nop
 80007e8:	420c8000 	andmi	r8, ip, #0
 80007ec:	46020c00 	strmi	r0, [r2], -r0, lsl #24
 80007f0:	42020800 	andmi	r0, r2, #0, 16
 80007f4:	42020c00 	andmi	r0, r2, #0, 24

080007f8 <LL_mDelay>:
 80007f8:	b082      	sub	sp, #8
 80007fa:	f04f 23e0 	mov.w	r3, #3758153728	; 0xe000e000
 80007fe:	691b      	ldr	r3, [r3, #16]
 8000800:	9301      	str	r3, [sp, #4]
 8000802:	9b01      	ldr	r3, [sp, #4]
 8000804:	f1b0 3fff 	cmp.w	r0, #4294967295	; 0xffffffff
 8000808:	d000      	beq.n	800080c <LL_mDelay+0x14>
 800080a:	3001      	adds	r0, #1
 800080c:	b138      	cbz	r0, 800081e <LL_mDelay+0x26>
 800080e:	f04f 23e0 	mov.w	r3, #3758153728	; 0xe000e000
 8000812:	691b      	ldr	r3, [r3, #16]
 8000814:	f413 3f80 	tst.w	r3, #65536	; 0x10000
 8000818:	d0f8      	beq.n	800080c <LL_mDelay+0x14>
 800081a:	3801      	subs	r0, #1
 800081c:	e7f6      	b.n	800080c <LL_mDelay+0x14>
 800081e:	b002      	add	sp, #8
 8000820:	4770      	bx	lr
	...

08000824 <LL_SetSystemCoreClock>:
 8000824:	4b01      	ldr	r3, [pc, #4]	; (800082c <LL_SetSystemCoreClock+0x8>)
 8000826:	6018      	str	r0, [r3, #0]
 8000828:	4770      	bx	lr
 800082a:	bf00      	nop
 800082c:	20000000 	andcs	r0, r0, r0

08000830 <LL_GPIO_Init>:
 8000830:	b4f0      	push	{r4, r5, r6, r7}
 8000832:	680a      	ldr	r2, [r1, #0]
 8000834:	fa92 f2a2 	rbit	r2, r2
 8000838:	b112      	cbz	r2, 8000840 <LL_GPIO_Init+0x10>
 800083a:	fab2 f282 	clz	r2, r2
 800083e:	e065      	b.n	800090c <LL_GPIO_Init+0xdc>
 8000840:	2220      	movs	r2, #32
 8000842:	e063      	b.n	800090c <LL_GPIO_Init+0xdc>
 8000844:	688e      	ldr	r6, [r1, #8]
 8000846:	6885      	ldr	r5, [r0, #8]
 8000848:	fa93 f4a3 	rbit	r4, r3
 800084c:	b1e4      	cbz	r4, 8000888 <LL_GPIO_Init+0x58>
 800084e:	fab4 f484 	clz	r4, r4
 8000852:	0064      	lsls	r4, r4, #1
 8000854:	f04f 0c03 	mov.w	ip, #3
 8000858:	fa0c f404 	lsl.w	r4, ip, r4
 800085c:	ea25 0504 	bic.w	r5, r5, r4
 8000860:	fa93 f4a3 	rbit	r4, r3
 8000864:	b194      	cbz	r4, 800088c <LL_GPIO_Init+0x5c>
 8000866:	fab4 f484 	clz	r4, r4
 800086a:	0064      	lsls	r4, r4, #1
 800086c:	fa06 f404 	lsl.w	r4, r6, r4
 8000870:	432c      	orrs	r4, r5
 8000872:	6084      	str	r4, [r0, #8]
 8000874:	680d      	ldr	r5, [r1, #0]
 8000876:	68ce      	ldr	r6, [r1, #12]
 8000878:	6844      	ldr	r4, [r0, #4]
 800087a:	ea24 0405 	bic.w	r4, r4, r5
 800087e:	fb06 f505 	mul.w	r5, r6, r5
 8000882:	432c      	orrs	r4, r5
 8000884:	6044      	str	r4, [r0, #4]
 8000886:	e050      	b.n	800092a <LL_GPIO_Init+0xfa>
 8000888:	2420      	movs	r4, #32
 800088a:	e7e2      	b.n	8000852 <LL_GPIO_Init+0x22>
 800088c:	2420      	movs	r4, #32
 800088e:	e7ec      	b.n	800086a <LL_GPIO_Init+0x3a>
 8000890:	2420      	movs	r4, #32
 8000892:	e052      	b.n	800093a <LL_GPIO_Init+0x10a>
 8000894:	2420      	movs	r4, #32
 8000896:	e05d      	b.n	8000954 <LL_GPIO_Init+0x124>
 8000898:	2420      	movs	r4, #32
 800089a:	e073      	b.n	8000984 <LL_GPIO_Init+0x154>
 800089c:	2420      	movs	r4, #32
 800089e:	e07d      	b.n	800099c <LL_GPIO_Init+0x16c>
 80008a0:	694f      	ldr	r7, [r1, #20]
 80008a2:	6a46      	ldr	r6, [r0, #36]	; 0x24
 80008a4:	0a1c      	lsrs	r4, r3, #8
 80008a6:	fa94 f5a4 	rbit	r5, r4
 80008aa:	2d00      	cmp	r5, #0
 80008ac:	d07c      	beq.n	80009a8 <LL_GPIO_Init+0x178>
 80008ae:	fab5 f585 	clz	r5, r5
 80008b2:	00ad      	lsls	r5, r5, #2
 80008b4:	f04f 0c0f 	mov.w	ip, #15
 80008b8:	fa0c f505 	lsl.w	r5, ip, r5
 80008bc:	ea26 0505 	bic.w	r5, r6, r5
 80008c0:	fa94 f4a4 	rbit	r4, r4
 80008c4:	2c00      	cmp	r4, #0
 80008c6:	d071      	beq.n	80009ac <LL_GPIO_Init+0x17c>
 80008c8:	fab4 f484 	clz	r4, r4
 80008cc:	00a4      	lsls	r4, r4, #2
 80008ce:	fa07 f404 	lsl.w	r4, r7, r4
 80008d2:	432c      	orrs	r4, r5
 80008d4:	6244      	str	r4, [r0, #36]	; 0x24
 80008d6:	684e      	ldr	r6, [r1, #4]
 80008d8:	6805      	ldr	r5, [r0, #0]
 80008da:	fa93 f4a3 	rbit	r4, r3
 80008de:	2c00      	cmp	r4, #0
 80008e0:	d066      	beq.n	80009b0 <LL_GPIO_Init+0x180>
 80008e2:	fab4 f484 	clz	r4, r4
 80008e6:	0064      	lsls	r4, r4, #1
 80008e8:	f04f 0c03 	mov.w	ip, #3
 80008ec:	fa0c f404 	lsl.w	r4, ip, r4
 80008f0:	ea25 0404 	bic.w	r4, r5, r4
 80008f4:	fa93 f3a3 	rbit	r3, r3
 80008f8:	2b00      	cmp	r3, #0
 80008fa:	d05b      	beq.n	80009b4 <LL_GPIO_Init+0x184>
 80008fc:	fab3 f383 	clz	r3, r3
 8000900:	005b      	lsls	r3, r3, #1
 8000902:	fa06 f303 	lsl.w	r3, r6, r3
 8000906:	4323      	orrs	r3, r4
 8000908:	6003      	str	r3, [r0, #0]
 800090a:	3201      	adds	r2, #1
 800090c:	680b      	ldr	r3, [r1, #0]
 800090e:	fa33 f402 	lsrs.w	r4, r3, r2
 8000912:	d051      	beq.n	80009b8 <LL_GPIO_Init+0x188>
 8000914:	f04f 0c01 	mov.w	ip, #1
 8000918:	fa0c fc02 	lsl.w	ip, ip, r2
 800091c:	ea1c 0303 	ands.w	r3, ip, r3
 8000920:	d0f3      	beq.n	800090a <LL_GPIO_Init+0xda>
 8000922:	684c      	ldr	r4, [r1, #4]
 8000924:	3c01      	subs	r4, #1
 8000926:	2c01      	cmp	r4, #1
 8000928:	d98c      	bls.n	8000844 <LL_GPIO_Init+0x14>
 800092a:	690e      	ldr	r6, [r1, #16]
 800092c:	68c5      	ldr	r5, [r0, #12]
 800092e:	fa93 f4a3 	rbit	r4, r3
 8000932:	2c00      	cmp	r4, #0
 8000934:	d0ac      	beq.n	8000890 <LL_GPIO_Init+0x60>
 8000936:	fab4 f484 	clz	r4, r4
 800093a:	0064      	lsls	r4, r4, #1
 800093c:	f04f 0c03 	mov.w	ip, #3
 8000940:	fa0c f404 	lsl.w	r4, ip, r4
 8000944:	ea25 0504 	bic.w	r5, r5, r4
 8000948:	fa93 f4a3 	rbit	r4, r3
 800094c:	2c00      	cmp	r4, #0
 800094e:	d0a1      	beq.n	8000894 <LL_GPIO_Init+0x64>
 8000950:	fab4 f484 	clz	r4, r4
 8000954:	0064      	lsls	r4, r4, #1
 8000956:	fa06 f404 	lsl.w	r4, r6, r4
 800095a:	432c      	orrs	r4, r5
 800095c:	60c4      	str	r4, [r0, #12]
 800095e:	684c      	ldr	r4, [r1, #4]
 8000960:	2c02      	cmp	r4, #2
 8000962:	d1b8      	bne.n	80008d6 <LL_GPIO_Init+0xa6>
 8000964:	fa93 f4a3 	rbit	r4, r3
 8000968:	2c00      	cmp	r4, #0
 800096a:	d099      	beq.n	80008a0 <LL_GPIO_Init+0x70>
 800096c:	fab4 f484 	clz	r4, r4
 8000970:	2c07      	cmp	r4, #7
 8000972:	d895      	bhi.n	80008a0 <LL_GPIO_Init+0x70>
 8000974:	694e      	ldr	r6, [r1, #20]
 8000976:	6a05      	ldr	r5, [r0, #32]
 8000978:	fa93 f4a3 	rbit	r4, r3
 800097c:	2c00      	cmp	r4, #0
 800097e:	d08b      	beq.n	8000898 <LL_GPIO_Init+0x68>
 8000980:	fab4 f484 	clz	r4, r4
 8000984:	00a4      	lsls	r4, r4, #2
 8000986:	270f      	movs	r7, #15
 8000988:	fa07 f404 	lsl.w	r4, r7, r4
 800098c:	ea25 0504 	bic.w	r5, r5, r4
 8000990:	fa93 f4a3 	rbit	r4, r3
 8000994:	2c00      	cmp	r4, #0
 8000996:	d081      	beq.n	800089c <LL_GPIO_Init+0x6c>
 8000998:	fab4 f484 	clz	r4, r4
 800099c:	00a4      	lsls	r4, r4, #2
 800099e:	fa06 f404 	lsl.w	r4, r6, r4
 80009a2:	432c      	orrs	r4, r5
 80009a4:	6204      	str	r4, [r0, #32]
 80009a6:	e796      	b.n	80008d6 <LL_GPIO_Init+0xa6>
 80009a8:	2520      	movs	r5, #32
 80009aa:	e782      	b.n	80008b2 <LL_GPIO_Init+0x82>
 80009ac:	2420      	movs	r4, #32
 80009ae:	e78d      	b.n	80008cc <LL_GPIO_Init+0x9c>
 80009b0:	2420      	movs	r4, #32
 80009b2:	e798      	b.n	80008e6 <LL_GPIO_Init+0xb6>
 80009b4:	2320      	movs	r3, #32
 80009b6:	e7a3      	b.n	8000900 <LL_GPIO_Init+0xd0>
 80009b8:	2000      	movs	r0, #0
 80009ba:	bcf0      	pop	{r4, r5, r6, r7}
 80009bc:	4770      	bx	lr
	...

080009c0 <HAL_InitTick>:
 80009c0:	4b10      	ldr	r3, [pc, #64]	; (8000a04 <HAL_InitTick+0x44>)
 80009c2:	781b      	ldrb	r3, [r3, #0]
 80009c4:	b90b      	cbnz	r3, 80009ca <HAL_InitTick+0xa>
 80009c6:	2001      	movs	r0, #1
 80009c8:	4770      	bx	lr
 80009ca:	b510      	push	{r4, lr}
 80009cc:	4604      	mov	r4, r0
 80009ce:	f44f 707a 	mov.w	r0, #1000	; 0x3e8
 80009d2:	fbb0 f3f3 	udiv	r3, r0, r3
 80009d6:	4a0c      	ldr	r2, [pc, #48]	; (8000a08 <HAL_InitTick+0x48>)
 80009d8:	6810      	ldr	r0, [r2, #0]
 80009da:	fbb0 f0f3 	udiv	r0, r0, r3
 80009de:	f001 fd15 	bl	800240c <HAL_SYSTICK_Config>
 80009e2:	b968      	cbnz	r0, 8000a00 <HAL_InitTick+0x40>
 80009e4:	2c0f      	cmp	r4, #15
 80009e6:	d901      	bls.n	80009ec <HAL_InitTick+0x2c>
 80009e8:	2001      	movs	r0, #1
 80009ea:	e00a      	b.n	8000a02 <HAL_InitTick+0x42>
 80009ec:	2200      	movs	r2, #0
 80009ee:	4621      	mov	r1, r4
 80009f0:	f04f 30ff 	mov.w	r0, #4294967295	; 0xffffffff
 80009f4:	f001 fcd2 	bl	800239c <HAL_NVIC_SetPriority>
 80009f8:	4b04      	ldr	r3, [pc, #16]	; (8000a0c <HAL_InitTick+0x4c>)
 80009fa:	601c      	str	r4, [r3, #0]
 80009fc:	2000      	movs	r0, #0
 80009fe:	e000      	b.n	8000a02 <HAL_InitTick+0x42>
 8000a00:	2001      	movs	r0, #1
 8000a02:	bd10      	pop	{r4, pc}
 8000a04:	20000004 	andcs	r0, r0, r4
 8000a08:	20000000 	andcs	r0, r0, r0
 8000a0c:	20000008 	andcs	r0, r0, r8

08000a10 <HAL_Init>:
 8000a10:	b510      	push	{r4, lr}
 8000a12:	4a0f      	ldr	r2, [pc, #60]	; (8000a50 <HAL_Init+0x40>)
 8000a14:	6813      	ldr	r3, [r2, #0]
 8000a16:	f443 7380 	orr.w	r3, r3, #256	; 0x100
 8000a1a:	6013      	str	r3, [r2, #0]
 8000a1c:	2003      	movs	r0, #3
 8000a1e:	f001 fcab 	bl	8002378 <HAL_NVIC_SetPriorityGrouping>
 8000a22:	f000 f843 	bl	8000aac <HAL_RCC_GetSysClockFreq>
 8000a26:	4b0b      	ldr	r3, [pc, #44]	; (8000a54 <HAL_Init+0x44>)
 8000a28:	6a1b      	ldr	r3, [r3, #32]
 8000a2a:	f003 030f 	and.w	r3, r3, #15
 8000a2e:	4a0a      	ldr	r2, [pc, #40]	; (8000a58 <HAL_Init+0x48>)
 8000a30:	5cd3      	ldrb	r3, [r2, r3]
 8000a32:	40d8      	lsrs	r0, r3
 8000a34:	4b09      	ldr	r3, [pc, #36]	; (8000a5c <HAL_Init+0x4c>)
 8000a36:	6018      	str	r0, [r3, #0]
 8000a38:	200f      	movs	r0, #15
 8000a3a:	f7ff ffc1 	bl	80009c0 <HAL_InitTick>
 8000a3e:	b110      	cbz	r0, 8000a46 <HAL_Init+0x36>
 8000a40:	2401      	movs	r4, #1
 8000a42:	4620      	mov	r0, r4
 8000a44:	bd10      	pop	{r4, pc}
 8000a46:	4604      	mov	r4, r0
 8000a48:	f7ff fe78 	bl	800073c <HAL_MspInit>
 8000a4c:	e7f9      	b.n	8000a42 <HAL_Init+0x32>
 8000a4e:	bf00      	nop
 8000a50:	40022000 	andmi	r2, r2, r0
 8000a54:	46020c00 	strmi	r0, [r2], -r0, lsl #24
 8000a58:	08003d88 	stmdaeq	r0, {r3, r7, r8, sl, fp, ip, sp}
 8000a5c:	20000000 	andcs	r0, r0, r0

08000a60 <HAL_IncTick>:
 8000a60:	4b03      	ldr	r3, [pc, #12]	; (8000a70 <HAL_IncTick+0x10>)
 8000a62:	781b      	ldrb	r3, [r3, #0]
 8000a64:	4a03      	ldr	r2, [pc, #12]	; (8000a74 <HAL_IncTick+0x14>)
 8000a66:	6811      	ldr	r1, [r2, #0]
 8000a68:	440b      	add	r3, r1
 8000a6a:	6013      	str	r3, [r2, #0]
 8000a6c:	4770      	bx	lr
 8000a6e:	bf00      	nop
 8000a70:	20000004 	andcs	r0, r0, r4
 8000a74:	200000a4 	andcs	r0, r0, r4, lsr #1

08000a78 <HAL_GetTick>:
 8000a78:	4b01      	ldr	r3, [pc, #4]	; (8000a80 <HAL_GetTick+0x8>)
 8000a7a:	6818      	ldr	r0, [r3, #0]
 8000a7c:	4770      	bx	lr
 8000a7e:	bf00      	nop
 8000a80:	200000a4 	andcs	r0, r0, r4, lsr #1

08000a84 <HAL_Delay>:
 8000a84:	b538      	push	{r3, r4, r5, lr}
 8000a86:	4604      	mov	r4, r0
 8000a88:	f7ff fff6 	bl	8000a78 <HAL_GetTick>
 8000a8c:	4605      	mov	r5, r0
 8000a8e:	f1b4 3fff 	cmp.w	r4, #4294967295	; 0xffffffff
 8000a92:	d002      	beq.n	8000a9a <HAL_Delay+0x16>
 8000a94:	4b04      	ldr	r3, [pc, #16]	; (8000aa8 <HAL_Delay+0x24>)
 8000a96:	781b      	ldrb	r3, [r3, #0]
 8000a98:	441c      	add	r4, r3
 8000a9a:	f7ff ffed 	bl	8000a78 <HAL_GetTick>
 8000a9e:	1b40      	subs	r0, r0, r5
 8000aa0:	42a0      	cmp	r0, r4
 8000aa2:	d3fa      	bcc.n	8000a9a <HAL_Delay+0x16>
 8000aa4:	bd38      	pop	{r3, r4, r5, pc}
 8000aa6:	bf00      	nop
 8000aa8:	20000004 	andcs	r0, r0, r4

08000aac <HAL_RCC_GetSysClockFreq>:
 8000aac:	b410      	push	{r4}
 8000aae:	4a59      	ldr	r2, [pc, #356]	; (8000c14 <HAL_RCC_GetSysClockFreq+0x168>)
 8000ab0:	69d3      	ldr	r3, [r2, #28]
 8000ab2:	6a92      	ldr	r2, [r2, #40]	; 0x28
 8000ab4:	f013 030c 	ands.w	r3, r3, #12
 8000ab8:	d010      	beq.n	8000adc <HAL_RCC_GetSysClockFreq+0x30>
 8000aba:	f002 0203 	and.w	r2, r2, #3
 8000abe:	2b0c      	cmp	r3, #12
 8000ac0:	d00a      	beq.n	8000ad8 <HAL_RCC_GetSysClockFreq+0x2c>
 8000ac2:	4a54      	ldr	r2, [pc, #336]	; (8000c14 <HAL_RCC_GetSysClockFreq+0x168>)
 8000ac4:	69d2      	ldr	r2, [r2, #28]
 8000ac6:	f002 020c 	and.w	r2, r2, #12
 8000aca:	2a04      	cmp	r2, #4
 8000acc:	d020      	beq.n	8000b10 <HAL_RCC_GetSysClockFreq+0x64>
 8000ace:	2b08      	cmp	r3, #8
 8000ad0:	d021      	beq.n	8000b16 <HAL_RCC_GetSysClockFreq+0x6a>
 8000ad2:	2000      	movs	r0, #0
 8000ad4:	4604      	mov	r4, r0
 8000ad6:	e010      	b.n	8000afa <HAL_RCC_GetSysClockFreq+0x4e>
 8000ad8:	2a01      	cmp	r2, #1
 8000ada:	d1f2      	bne.n	8000ac2 <HAL_RCC_GetSysClockFreq+0x16>
 8000adc:	4a4d      	ldr	r2, [pc, #308]	; (8000c14 <HAL_RCC_GetSysClockFreq+0x168>)
 8000ade:	6892      	ldr	r2, [r2, #8]
 8000ae0:	f412 0f00 	tst.w	r2, #8388608	; 0x800000
 8000ae4:	d10e      	bne.n	8000b04 <HAL_RCC_GetSysClockFreq+0x58>
 8000ae6:	4a4b      	ldr	r2, [pc, #300]	; (8000c14 <HAL_RCC_GetSysClockFreq+0x168>)
 8000ae8:	f8d2 20f4 	ldr.w	r2, [r2, #244]	; 0xf4
 8000aec:	f3c2 3203 	ubfx	r2, r2, #12, #4
 8000af0:	4949      	ldr	r1, [pc, #292]	; (8000c18 <HAL_RCC_GetSysClockFreq+0x16c>)
 8000af2:	f851 4022 	ldr.w	r4, [r1, r2, lsl #2]
 8000af6:	b14b      	cbz	r3, 8000b0c <HAL_RCC_GetSysClockFreq+0x60>
 8000af8:	2000      	movs	r0, #0
 8000afa:	2b0c      	cmp	r3, #12
 8000afc:	d00e      	beq.n	8000b1c <HAL_RCC_GetSysClockFreq+0x70>
 8000afe:	f85d 4b04 	ldr.w	r4, [sp], #4
 8000b02:	4770      	bx	lr
 8000b04:	4a43      	ldr	r2, [pc, #268]	; (8000c14 <HAL_RCC_GetSysClockFreq+0x168>)
 8000b06:	6892      	ldr	r2, [r2, #8]
 8000b08:	0f12      	lsrs	r2, r2, #28
 8000b0a:	e7f1      	b.n	8000af0 <HAL_RCC_GetSysClockFreq+0x44>
 8000b0c:	4620      	mov	r0, r4
 8000b0e:	e7f4      	b.n	8000afa <HAL_RCC_GetSysClockFreq+0x4e>
 8000b10:	4842      	ldr	r0, [pc, #264]	; (8000c1c <HAL_RCC_GetSysClockFreq+0x170>)
 8000b12:	2400      	movs	r4, #0
 8000b14:	e7f1      	b.n	8000afa <HAL_RCC_GetSysClockFreq+0x4e>
 8000b16:	4841      	ldr	r0, [pc, #260]	; (8000c1c <HAL_RCC_GetSysClockFreq+0x170>)
 8000b18:	2400      	movs	r4, #0
 8000b1a:	e7ee      	b.n	8000afa <HAL_RCC_GetSysClockFreq+0x4e>
 8000b1c:	483d      	ldr	r0, [pc, #244]	; (8000c14 <HAL_RCC_GetSysClockFreq+0x168>)
 8000b1e:	6a81      	ldr	r1, [r0, #40]	; 0x28
 8000b20:	f001 0103 	and.w	r1, r1, #3
 8000b24:	6a83      	ldr	r3, [r0, #40]	; 0x28
 8000b26:	f3c3 2303 	ubfx	r3, r3, #8, #4
 8000b2a:	3301      	adds	r3, #1
 8000b2c:	ee07 3a10 	vmov	s14, r3
 8000b30:	6a83      	ldr	r3, [r0, #40]	; 0x28
 8000b32:	f3c3 1c00 	ubfx	ip, r3, #4, #1
 8000b36:	6b83      	ldr	r3, [r0, #56]	; 0x38
 8000b38:	f3c3 03cc 	ubfx	r3, r3, #3, #13
 8000b3c:	fb0c f303 	mul.w	r3, ip, r3
 8000b40:	ee07 3a90 	vmov	s15, r3
 8000b44:	eef8 7a67 	vcvt.f32.u32	s15, s15
 8000b48:	2902      	cmp	r1, #2
 8000b4a:	d01e      	beq.n	8000b8a <HAL_RCC_GetSysClockFreq+0xde>
 8000b4c:	2903      	cmp	r1, #3
 8000b4e:	d046      	beq.n	8000bde <HAL_RCC_GetSysClockFreq+0x132>
 8000b50:	ee06 4a90 	vmov	s13, r4
 8000b54:	eef8 6a66 	vcvt.f32.u32	s13, s13
 8000b58:	eeb8 7a47 	vcvt.f32.u32	s14, s14
 8000b5c:	ee86 6a87 	vdiv.f32	s12, s13, s14
 8000b60:	4b2c      	ldr	r3, [pc, #176]	; (8000c14 <HAL_RCC_GetSysClockFreq+0x168>)
 8000b62:	6b5b      	ldr	r3, [r3, #52]	; 0x34
 8000b64:	f3c3 0308 	ubfx	r3, r3, #0, #9
 8000b68:	ee06 3a90 	vmov	s13, r3
 8000b6c:	eef8 6a66 	vcvt.f32.u32	s13, s13
 8000b70:	ed9f 7a2b 	vldr	s14, [pc, #172]	; 8000c20 <HAL_RCC_GetSysClockFreq+0x174>
 8000b74:	ee67 7a87 	vmul.f32	s15, s15, s14
 8000b78:	ee76 7aa7 	vadd.f32	s15, s13, s15
 8000b7c:	eef7 6a00 	vmov.f32	s13, #112	; 0x3f800000  1.0
 8000b80:	ee77 6aa6 	vadd.f32	s13, s15, s13
 8000b84:	ee66 6a26 	vmul.f32	s13, s12, s13
 8000b88:	e019      	b.n	8000bbe <HAL_RCC_GetSysClockFreq+0x112>
 8000b8a:	eeb8 7a47 	vcvt.f32.u32	s14, s14
 8000b8e:	ed9f 6a25 	vldr	s12, [pc, #148]	; 8000c24 <HAL_RCC_GetSysClockFreq+0x178>
 8000b92:	eec6 6a07 	vdiv.f32	s13, s12, s14
 8000b96:	4b1f      	ldr	r3, [pc, #124]	; (8000c14 <HAL_RCC_GetSysClockFreq+0x168>)
 8000b98:	6b5b      	ldr	r3, [r3, #52]	; 0x34
 8000b9a:	f3c3 0308 	ubfx	r3, r3, #0, #9
 8000b9e:	ee07 3a10 	vmov	s14, r3
 8000ba2:	eeb8 7a47 	vcvt.f32.u32	s14, s14
 8000ba6:	ed9f 6a1e 	vldr	s12, [pc, #120]	; 8000c20 <HAL_RCC_GetSysClockFreq+0x174>
 8000baa:	ee67 7a86 	vmul.f32	s15, s15, s12
 8000bae:	ee77 7a27 	vadd.f32	s15, s14, s15
 8000bb2:	eeb7 7a00 	vmov.f32	s14, #112	; 0x3f800000  1.0
 8000bb6:	ee77 7a87 	vadd.f32	s15, s15, s14
 8000bba:	ee66 6aa7 	vmul.f32	s13, s13, s15
 8000bbe:	4b15      	ldr	r3, [pc, #84]	; (8000c14 <HAL_RCC_GetSysClockFreq+0x168>)
 8000bc0:	6b5b      	ldr	r3, [r3, #52]	; 0x34
 8000bc2:	f3c3 6306 	ubfx	r3, r3, #24, #7
 8000bc6:	3301      	adds	r3, #1
 8000bc8:	ee07 3a90 	vmov	s15, r3
 8000bcc:	eeb8 7a67 	vcvt.f32.u32	s14, s15
 8000bd0:	eec6 7a87 	vdiv.f32	s15, s13, s14
 8000bd4:	eefc 7ae7 	vcvt.u32.f32	s15, s15
 8000bd8:	ee17 0a90 	vmov	r0, s15
 8000bdc:	e78f      	b.n	8000afe <HAL_RCC_GetSysClockFreq+0x52>
 8000bde:	eeb8 7a47 	vcvt.f32.u32	s14, s14
 8000be2:	ed9f 6a10 	vldr	s12, [pc, #64]	; 8000c24 <HAL_RCC_GetSysClockFreq+0x178>
 8000be6:	eec6 6a07 	vdiv.f32	s13, s12, s14
 8000bea:	4b0a      	ldr	r3, [pc, #40]	; (8000c14 <HAL_RCC_GetSysClockFreq+0x168>)
 8000bec:	6b5b      	ldr	r3, [r3, #52]	; 0x34
 8000bee:	f3c3 0308 	ubfx	r3, r3, #0, #9
 8000bf2:	ee07 3a10 	vmov	s14, r3
 8000bf6:	eeb8 7a47 	vcvt.f32.u32	s14, s14
 8000bfa:	ed9f 6a09 	vldr	s12, [pc, #36]	; 8000c20 <HAL_RCC_GetSysClockFreq+0x174>
 8000bfe:	ee67 7a86 	vmul.f32	s15, s15, s12
 8000c02:	ee77 7a27 	vadd.f32	s15, s14, s15
 8000c06:	eeb7 7a00 	vmov.f32	s14, #112	; 0x3f800000  1.0
 8000c0a:	ee77 7a87 	vadd.f32	s15, s15, s14
 8000c0e:	ee66 6aa7 	vmul.f32	s13, s13, s15
 8000c12:	e7d4      	b.n	8000bbe <HAL_RCC_GetSysClockFreq+0x112>
 8000c14:	46020c00 	strmi	r0, [r2], -r0, lsl #24
 8000c18:	08003da0 	stmdaeq	r0, {r5, r7, r8, sl, fp, ip, sp}
 8000c1c:	00f42400 	rscseq	r2, r4, r0, lsl #8
 8000c20:	39000000 	stmdbcc	r0, {}	; <UNPREDICTABLE>
 8000c24:	4b742400 	blmi	9d09c2c <_sidata+0x1d05d94>

08000c28 <HAL_RCC_GetHCLKFreq>:
 8000c28:	b508      	push	{r3, lr}
 8000c2a:	f7ff ff3f 	bl	8000aac <HAL_RCC_GetSysClockFreq>
 8000c2e:	4b05      	ldr	r3, [pc, #20]	; (8000c44 <HAL_RCC_GetHCLKFreq+0x1c>)
 8000c30:	6a1b      	ldr	r3, [r3, #32]
 8000c32:	f003 030f 	and.w	r3, r3, #15
 8000c36:	4a04      	ldr	r2, [pc, #16]	; (8000c48 <HAL_RCC_GetHCLKFreq+0x20>)
 8000c38:	5cd3      	ldrb	r3, [r2, r3]
 8000c3a:	40d8      	lsrs	r0, r3
 8000c3c:	4b03      	ldr	r3, [pc, #12]	; (8000c4c <HAL_RCC_GetHCLKFreq+0x24>)
 8000c3e:	6018      	str	r0, [r3, #0]
 8000c40:	bd08      	pop	{r3, pc}
 8000c42:	bf00      	nop
 8000c44:	46020c00 	strmi	r0, [r2], -r0, lsl #24
 8000c48:	08003d88 	stmdaeq	r0, {r3, r7, r8, sl, fp, ip, sp}
 8000c4c:	20000000 	andcs	r0, r0, r0

08000c50 <HAL_RCC_GetPCLK1Freq>:
 8000c50:	b508      	push	{r3, lr}
 8000c52:	f7ff ffe9 	bl	8000c28 <HAL_RCC_GetHCLKFreq>
 8000c56:	4b04      	ldr	r3, [pc, #16]	; (8000c68 <HAL_RCC_GetPCLK1Freq+0x18>)
 8000c58:	6a1b      	ldr	r3, [r3, #32]
 8000c5a:	f3c3 1302 	ubfx	r3, r3, #4, #3
 8000c5e:	4a03      	ldr	r2, [pc, #12]	; (8000c6c <HAL_RCC_GetPCLK1Freq+0x1c>)
 8000c60:	5cd3      	ldrb	r3, [r2, r3]
 8000c62:	40d8      	lsrs	r0, r3
 8000c64:	bd08      	pop	{r3, pc}
 8000c66:	bf00      	nop
 8000c68:	46020c00 	strmi	r0, [r2], -r0, lsl #24
 8000c6c:	08003d98 	stmdaeq	r0, {r3, r4, r7, r8, sl, fp, ip, sp}

08000c70 <HAL_RCC_GetPCLK2Freq>:
 8000c70:	b508      	push	{r3, lr}
 8000c72:	f7ff ffd9 	bl	8000c28 <HAL_RCC_GetHCLKFreq>
 8000c76:	4b04      	ldr	r3, [pc, #16]	; (8000c88 <HAL_RCC_GetPCLK2Freq+0x18>)
 8000c78:	6a1b      	ldr	r3, [r3, #32]
 8000c7a:	f3c3 2302 	ubfx	r3, r3, #8, #3
 8000c7e:	4a03      	ldr	r2, [pc, #12]	; (8000c8c <HAL_RCC_GetPCLK2Freq+0x1c>)
 8000c80:	5cd3      	ldrb	r3, [r2, r3]
 8000c82:	40d8      	lsrs	r0, r3
 8000c84:	bd08      	pop	{r3, pc}
 8000c86:	bf00      	nop
 8000c88:	46020c00 	strmi	r0, [r2], -r0, lsl #24
 8000c8c:	08003d98 	stmdaeq	r0, {r3, r4, r7, r8, sl, fp, ip, sp}

08000c90 <HAL_RCC_GetPCLK3Freq>:
 8000c90:	b508      	push	{r3, lr}
 8000c92:	f7ff ffc9 	bl	8000c28 <HAL_RCC_GetHCLKFreq>
 8000c96:	4b04      	ldr	r3, [pc, #16]	; (8000ca8 <HAL_RCC_GetPCLK3Freq+0x18>)
 8000c98:	6a5b      	ldr	r3, [r3, #36]	; 0x24
 8000c9a:	f3c3 1302 	ubfx	r3, r3, #4, #3
 8000c9e:	4a03      	ldr	r2, [pc, #12]	; (8000cac <HAL_RCC_GetPCLK3Freq+0x1c>)
 8000ca0:	5cd3      	ldrb	r3, [r2, r3]
 8000ca2:	40d8      	lsrs	r0, r3
 8000ca4:	bd08      	pop	{r3, pc}
 8000ca6:	bf00      	nop
 8000ca8:	46020c00 	strmi	r0, [r2], -r0, lsl #24
 8000cac:	08003d98 	stmdaeq	r0, {r3, r4, r7, r8, sl, fp, ip, sp}

08000cb0 <HAL_RCCEx_GetPLL1ClockFreq>:
 8000cb0:	b510      	push	{r4, lr}
 8000cb2:	4c82      	ldr	r4, [pc, #520]	; (8000ebc <HAL_RCCEx_GetPLL1ClockFreq+0x20c>)
 8000cb4:	6b61      	ldr	r1, [r4, #52]	; 0x34
 8000cb6:	f3c1 0108 	ubfx	r1, r1, #0, #9
 8000cba:	6aa3      	ldr	r3, [r4, #40]	; 0x28
 8000cbc:	f003 0c03 	and.w	ip, r3, #3
 8000cc0:	6aa3      	ldr	r3, [r4, #40]	; 0x28
 8000cc2:	f3c3 2303 	ubfx	r3, r3, #8, #4
 8000cc6:	1c5a      	adds	r2, r3, #1
 8000cc8:	6aa3      	ldr	r3, [r4, #40]	; 0x28
 8000cca:	f3c3 1e00 	ubfx	lr, r3, #4, #1
 8000cce:	6ba3      	ldr	r3, [r4, #56]	; 0x38
 8000cd0:	f3c3 03cc 	ubfx	r3, r3, #3, #13
 8000cd4:	fb0e f303 	mul.w	r3, lr, r3
 8000cd8:	ee07 3a90 	vmov	s15, r3
 8000cdc:	eef8 7a67 	vcvt.f32.u32	s15, s15
 8000ce0:	f1bc 0f02 	cmp.w	ip, #2
 8000ce4:	d02e      	beq.n	8000d44 <HAL_RCCEx_GetPLL1ClockFreq+0x94>
 8000ce6:	f1bc 0f03 	cmp.w	ip, #3
 8000cea:	f000 80ba 	beq.w	8000e62 <HAL_RCCEx_GetPLL1ClockFreq+0x1b2>
 8000cee:	f1bc 0f01 	cmp.w	ip, #1
 8000cf2:	f000 808a 	beq.w	8000e0a <HAL_RCCEx_GetPLL1ClockFreq+0x15a>
 8000cf6:	4b71      	ldr	r3, [pc, #452]	; (8000ebc <HAL_RCCEx_GetPLL1ClockFreq+0x20c>)
 8000cf8:	689b      	ldr	r3, [r3, #8]
 8000cfa:	f413 0f00 	tst.w	r3, #8388608	; 0x800000
 8000cfe:	f000 80cd 	beq.w	8000e9c <HAL_RCCEx_GetPLL1ClockFreq+0x1ec>
 8000d02:	4b6e      	ldr	r3, [pc, #440]	; (8000ebc <HAL_RCCEx_GetPLL1ClockFreq+0x20c>)
 8000d04:	689b      	ldr	r3, [r3, #8]
 8000d06:	0f1b      	lsrs	r3, r3, #28
 8000d08:	4c6d      	ldr	r4, [pc, #436]	; (8000ec0 <HAL_RCCEx_GetPLL1ClockFreq+0x210>)
 8000d0a:	eb04 0383 	add.w	r3, r4, r3, lsl #2
 8000d0e:	ed93 6a00 	vldr	s12, [r3]
 8000d12:	eeb8 6a46 	vcvt.f32.u32	s12, s12
 8000d16:	ee07 2a10 	vmov	s14, r2
 8000d1a:	eeb8 7a47 	vcvt.f32.u32	s14, s14
 8000d1e:	eec6 6a07 	vdiv.f32	s13, s12, s14
 8000d22:	ee07 1a10 	vmov	s14, r1
 8000d26:	eeb8 7a47 	vcvt.f32.u32	s14, s14
 8000d2a:	ed9f 6a66 	vldr	s12, [pc, #408]	; 8000ec4 <HAL_RCCEx_GetPLL1ClockFreq+0x214>
 8000d2e:	ee67 7a86 	vmul.f32	s15, s15, s12
 8000d32:	ee77 7a27 	vadd.f32	s15, s14, s15
 8000d36:	eeb7 7a00 	vmov.f32	s14, #112	; 0x3f800000  1.0
 8000d3a:	ee77 7a87 	vadd.f32	s15, s15, s14
 8000d3e:	ee66 7aa7 	vmul.f32	s15, s13, s15
 8000d42:	e01b      	b.n	8000d7c <HAL_RCCEx_GetPLL1ClockFreq+0xcc>
 8000d44:	ee07 2a10 	vmov	s14, r2
 8000d48:	eeb8 7a47 	vcvt.f32.u32	s14, s14
 8000d4c:	ed9f 6a5e 	vldr	s12, [pc, #376]	; 8000ec8 <HAL_RCCEx_GetPLL1ClockFreq+0x218>
 8000d50:	eec6 6a07 	vdiv.f32	s13, s12, s14
 8000d54:	4b59      	ldr	r3, [pc, #356]	; (8000ebc <HAL_RCCEx_GetPLL1ClockFreq+0x20c>)
 8000d56:	6b5b      	ldr	r3, [r3, #52]	; 0x34
 8000d58:	f3c3 0308 	ubfx	r3, r3, #0, #9
 8000d5c:	ee07 3a10 	vmov	s14, r3
 8000d60:	eeb8 7a47 	vcvt.f32.u32	s14, s14
 8000d64:	ed9f 6a57 	vldr	s12, [pc, #348]	; 8000ec4 <HAL_RCCEx_GetPLL1ClockFreq+0x214>
 8000d68:	ee67 7a86 	vmul.f32	s15, s15, s12
 8000d6c:	ee77 7a27 	vadd.f32	s15, s14, s15
 8000d70:	eeb7 7a00 	vmov.f32	s14, #112	; 0x3f800000  1.0
 8000d74:	ee77 7a87 	vadd.f32	s15, s15, s14
 8000d78:	ee66 7aa7 	vmul.f32	s15, s13, s15
 8000d7c:	4b4f      	ldr	r3, [pc, #316]	; (8000ebc <HAL_RCCEx_GetPLL1ClockFreq+0x20c>)
 8000d7e:	6a9b      	ldr	r3, [r3, #40]	; 0x28
 8000d80:	f413 3f80 	tst.w	r3, #65536	; 0x10000
 8000d84:	f000 8090 	beq.w	8000ea8 <HAL_RCCEx_GetPLL1ClockFreq+0x1f8>
 8000d88:	4b4c      	ldr	r3, [pc, #304]	; (8000ebc <HAL_RCCEx_GetPLL1ClockFreq+0x20c>)
 8000d8a:	6b5b      	ldr	r3, [r3, #52]	; 0x34
 8000d8c:	f3c3 2346 	ubfx	r3, r3, #9, #7
 8000d90:	ee07 3a10 	vmov	s14, r3
 8000d94:	eeb8 7a47 	vcvt.f32.u32	s14, s14
 8000d98:	eef7 6a00 	vmov.f32	s13, #112	; 0x3f800000  1.0
 8000d9c:	ee37 7a26 	vadd.f32	s14, s14, s13
 8000da0:	eec7 6a87 	vdiv.f32	s13, s15, s14
 8000da4:	eefc 6ae6 	vcvt.u32.f32	s13, s13
 8000da8:	edc0 6a00 	vstr	s13, [r0]
 8000dac:	4b43      	ldr	r3, [pc, #268]	; (8000ebc <HAL_RCCEx_GetPLL1ClockFreq+0x20c>)
 8000dae:	6a9b      	ldr	r3, [r3, #40]	; 0x28
 8000db0:	f413 3f00 	tst.w	r3, #131072	; 0x20000
 8000db4:	d07b      	beq.n	8000eae <HAL_RCCEx_GetPLL1ClockFreq+0x1fe>
 8000db6:	4b41      	ldr	r3, [pc, #260]	; (8000ebc <HAL_RCCEx_GetPLL1ClockFreq+0x20c>)
 8000db8:	6b5b      	ldr	r3, [r3, #52]	; 0x34
 8000dba:	f3c3 4306 	ubfx	r3, r3, #16, #7
 8000dbe:	ee07 3a10 	vmov	s14, r3
 8000dc2:	eeb8 7a47 	vcvt.f32.u32	s14, s14
 8000dc6:	eef7 6a00 	vmov.f32	s13, #112	; 0x3f800000  1.0
 8000dca:	ee37 7a26 	vadd.f32	s14, s14, s13
 8000dce:	eec7 6a87 	vdiv.f32	s13, s15, s14
 8000dd2:	eefc 6ae6 	vcvt.u32.f32	s13, s13
 8000dd6:	edc0 6a01 	vstr	s13, [r0, #4]
 8000dda:	4b38      	ldr	r3, [pc, #224]	; (8000ebc <HAL_RCCEx_GetPLL1ClockFreq+0x20c>)
 8000ddc:	6a9b      	ldr	r3, [r3, #40]	; 0x28
 8000dde:	f413 2f80 	tst.w	r3, #262144	; 0x40000
 8000de2:	d067      	beq.n	8000eb4 <HAL_RCCEx_GetPLL1ClockFreq+0x204>
 8000de4:	4b35      	ldr	r3, [pc, #212]	; (8000ebc <HAL_RCCEx_GetPLL1ClockFreq+0x20c>)
 8000de6:	6b5b      	ldr	r3, [r3, #52]	; 0x34
 8000de8:	f3c3 6306 	ubfx	r3, r3, #24, #7
 8000dec:	ee07 3a10 	vmov	s14, r3
 8000df0:	eeb8 7a47 	vcvt.f32.u32	s14, s14
 8000df4:	eef7 6a00 	vmov.f32	s13, #112	; 0x3f800000  1.0
 8000df8:	ee37 7a26 	vadd.f32	s14, s14, s13
 8000dfc:	eec7 6a87 	vdiv.f32	s13, s15, s14
 8000e00:	eefc 6ae6 	vcvt.u32.f32	s13, s13
 8000e04:	edc0 6a02 	vstr	s13, [r0, #8]
 8000e08:	bd10      	pop	{r4, pc}
 8000e0a:	4b2c      	ldr	r3, [pc, #176]	; (8000ebc <HAL_RCCEx_GetPLL1ClockFreq+0x20c>)
 8000e0c:	689b      	ldr	r3, [r3, #8]
 8000e0e:	f413 0f00 	tst.w	r3, #8388608	; 0x800000
 8000e12:	d020      	beq.n	8000e56 <HAL_RCCEx_GetPLL1ClockFreq+0x1a6>
 8000e14:	4b29      	ldr	r3, [pc, #164]	; (8000ebc <HAL_RCCEx_GetPLL1ClockFreq+0x20c>)
 8000e16:	689b      	ldr	r3, [r3, #8]
 8000e18:	0f1b      	lsrs	r3, r3, #28
 8000e1a:	4c29      	ldr	r4, [pc, #164]	; (8000ec0 <HAL_RCCEx_GetPLL1ClockFreq+0x210>)
 8000e1c:	eb04 0383 	add.w	r3, r4, r3, lsl #2
 8000e20:	ed93 6a00 	vldr	s12, [r3]
 8000e24:	eeb8 6a46 	vcvt.f32.u32	s12, s12
 8000e28:	ee07 2a10 	vmov	s14, r2
 8000e2c:	eeb8 7a47 	vcvt.f32.u32	s14, s14
 8000e30:	eec6 6a07 	vdiv.f32	s13, s12, s14
 8000e34:	ee07 1a10 	vmov	s14, r1
 8000e38:	eeb8 7a47 	vcvt.f32.u32	s14, s14
 8000e3c:	ed9f 6a21 	vldr	s12, [pc, #132]	; 8000ec4 <HAL_RCCEx_GetPLL1ClockFreq+0x214>
 8000e40:	ee67 7a86 	vmul.f32	s15, s15, s12
 8000e44:	ee77 7a27 	vadd.f32	s15, s14, s15
 8000e48:	eeb7 7a00 	vmov.f32	s14, #112	; 0x3f800000  1.0
 8000e4c:	ee77 7a87 	vadd.f32	s15, s15, s14
 8000e50:	ee66 7aa7 	vmul.f32	s15, s13, s15
 8000e54:	e792      	b.n	8000d7c <HAL_RCCEx_GetPLL1ClockFreq+0xcc>
 8000e56:	4b19      	ldr	r3, [pc, #100]	; (8000ebc <HAL_RCCEx_GetPLL1ClockFreq+0x20c>)
 8000e58:	f8d3 30f4 	ldr.w	r3, [r3, #244]	; 0xf4
 8000e5c:	f3c3 3303 	ubfx	r3, r3, #12, #4
 8000e60:	e7db      	b.n	8000e1a <HAL_RCCEx_GetPLL1ClockFreq+0x16a>
 8000e62:	ee07 2a10 	vmov	s14, r2
 8000e66:	eeb8 7a47 	vcvt.f32.u32	s14, s14
 8000e6a:	ed9f 6a17 	vldr	s12, [pc, #92]	; 8000ec8 <HAL_RCCEx_GetPLL1ClockFreq+0x218>
 8000e6e:	eec6 6a07 	vdiv.f32	s13, s12, s14
 8000e72:	4b12      	ldr	r3, [pc, #72]	; (8000ebc <HAL_RCCEx_GetPLL1ClockFreq+0x20c>)
 8000e74:	6b5b      	ldr	r3, [r3, #52]	; 0x34
 8000e76:	f3c3 0308 	ubfx	r3, r3, #0, #9
 8000e7a:	ee07 3a10 	vmov	s14, r3
 8000e7e:	eeb8 7a47 	vcvt.f32.u32	s14, s14
 8000e82:	ed9f 6a10 	vldr	s12, [pc, #64]	; 8000ec4 <HAL_RCCEx_GetPLL1ClockFreq+0x214>
 8000e86:	ee67 7a86 	vmul.f32	s15, s15, s12
 8000e8a:	ee77 7a27 	vadd.f32	s15, s14, s15
 8000e8e:	eeb7 7a00 	vmov.f32	s14, #112	; 0x3f800000  1.0
 8000e92:	ee77 7a87 	vadd.f32	s15, s15, s14
 8000e96:	ee66 7aa7 	vmul.f32	s15, s13, s15
 8000e9a:	e76f      	b.n	8000d7c <HAL_RCCEx_GetPLL1ClockFreq+0xcc>
 8000e9c:	4b07      	ldr	r3, [pc, #28]	; (8000ebc <HAL_RCCEx_GetPLL1ClockFreq+0x20c>)
 8000e9e:	f8d3 30f4 	ldr.w	r3, [r3, #244]	; 0xf4
 8000ea2:	f3c3 3303 	ubfx	r3, r3, #12, #4
 8000ea6:	e72f      	b.n	8000d08 <HAL_RCCEx_GetPLL1ClockFreq+0x58>
 8000ea8:	2300      	movs	r3, #0
 8000eaa:	6003      	str	r3, [r0, #0]
 8000eac:	e77e      	b.n	8000dac <HAL_RCCEx_GetPLL1ClockFreq+0xfc>
 8000eae:	2300      	movs	r3, #0
 8000eb0:	6043      	str	r3, [r0, #4]
 8000eb2:	e792      	b.n	8000dda <HAL_RCCEx_GetPLL1ClockFreq+0x12a>
 8000eb4:	2300      	movs	r3, #0
 8000eb6:	6083      	str	r3, [r0, #8]
 8000eb8:	e7a6      	b.n	8000e08 <HAL_RCCEx_GetPLL1ClockFreq+0x158>
 8000eba:	bf00      	nop
 8000ebc:	46020c00 	strmi	r0, [r2], -r0, lsl #24
 8000ec0:	08003da0 	stmdaeq	r0, {r5, r7, r8, sl, fp, ip, sp}
 8000ec4:	39000000 	stmdbcc	r0, {}	; <UNPREDICTABLE>
 8000ec8:	4b742400 	blmi	9d09ed0 <_sidata+0x1d06038>

08000ecc <HAL_RCCEx_GetPLL2ClockFreq>:
 8000ecc:	b510      	push	{r4, lr}
 8000ece:	4c82      	ldr	r4, [pc, #520]	; (80010d8 <HAL_RCCEx_GetPLL2ClockFreq+0x20c>)
 8000ed0:	6be1      	ldr	r1, [r4, #60]	; 0x3c
 8000ed2:	f3c1 0108 	ubfx	r1, r1, #0, #9
 8000ed6:	6ae3      	ldr	r3, [r4, #44]	; 0x2c
 8000ed8:	f003 0c03 	and.w	ip, r3, #3
 8000edc:	6ae3      	ldr	r3, [r4, #44]	; 0x2c
 8000ede:	f3c3 2303 	ubfx	r3, r3, #8, #4
 8000ee2:	1c5a      	adds	r2, r3, #1
 8000ee4:	6ae3      	ldr	r3, [r4, #44]	; 0x2c
 8000ee6:	f3c3 1e00 	ubfx	lr, r3, #4, #1
 8000eea:	6c23      	ldr	r3, [r4, #64]	; 0x40
 8000eec:	f3c3 03cc 	ubfx	r3, r3, #3, #13
 8000ef0:	fb0e f303 	mul.w	r3, lr, r3
 8000ef4:	ee07 3a90 	vmov	s15, r3
 8000ef8:	eef8 7a67 	vcvt.f32.u32	s15, s15
 8000efc:	f1bc 0f02 	cmp.w	ip, #2
 8000f00:	d02e      	beq.n	8000f60 <HAL_RCCEx_GetPLL2ClockFreq+0x94>
 8000f02:	f1bc 0f03 	cmp.w	ip, #3
 8000f06:	f000 80ba 	beq.w	800107e <HAL_RCCEx_GetPLL2ClockFreq+0x1b2>
 8000f0a:	f1bc 0f01 	cmp.w	ip, #1
 8000f0e:	f000 808a 	beq.w	8001026 <HAL_RCCEx_GetPLL2ClockFreq+0x15a>
 8000f12:	4b71      	ldr	r3, [pc, #452]	; (80010d8 <HAL_RCCEx_GetPLL2ClockFreq+0x20c>)
 8000f14:	689b      	ldr	r3, [r3, #8]
 8000f16:	f413 0f00 	tst.w	r3, #8388608	; 0x800000
 8000f1a:	f000 80cd 	beq.w	80010b8 <HAL_RCCEx_GetPLL2ClockFreq+0x1ec>
 8000f1e:	4b6e      	ldr	r3, [pc, #440]	; (80010d8 <HAL_RCCEx_GetPLL2ClockFreq+0x20c>)
 8000f20:	689b      	ldr	r3, [r3, #8]
 8000f22:	0f1b      	lsrs	r3, r3, #28
 8000f24:	4c6d      	ldr	r4, [pc, #436]	; (80010dc <HAL_RCCEx_GetPLL2ClockFreq+0x210>)
 8000f26:	eb04 0383 	add.w	r3, r4, r3, lsl #2
 8000f2a:	ed93 6a00 	vldr	s12, [r3]
 8000f2e:	eeb8 6a46 	vcvt.f32.u32	s12, s12
 8000f32:	ee07 2a10 	vmov	s14, r2
 8000f36:	eeb8 7a47 	vcvt.f32.u32	s14, s14
 8000f3a:	eec6 6a07 	vdiv.f32	s13, s12, s14
 8000f3e:	ee07 1a10 	vmov	s14, r1
 8000f42:	eeb8 7a47 	vcvt.f32.u32	s14, s14
 8000f46:	ed9f 6a66 	vldr	s12, [pc, #408]	; 80010e0 <HAL_RCCEx_GetPLL2ClockFreq+0x214>
 8000f4a:	ee67 7a86 	vmul.f32	s15, s15, s12
 8000f4e:	ee77 7a27 	vadd.f32	s15, s14, s15
 8000f52:	eeb7 7a00 	vmov.f32	s14, #112	; 0x3f800000  1.0
 8000f56:	ee77 7a87 	vadd.f32	s15, s15, s14
 8000f5a:	ee66 7aa7 	vmul.f32	s15, s13, s15
 8000f5e:	e01b      	b.n	8000f98 <HAL_RCCEx_GetPLL2ClockFreq+0xcc>
 8000f60:	ee07 2a10 	vmov	s14, r2
 8000f64:	eeb8 7a47 	vcvt.f32.u32	s14, s14
 8000f68:	ed9f 6a5e 	vldr	s12, [pc, #376]	; 80010e4 <HAL_RCCEx_GetPLL2ClockFreq+0x218>
 8000f6c:	eec6 6a07 	vdiv.f32	s13, s12, s14
 8000f70:	4b59      	ldr	r3, [pc, #356]	; (80010d8 <HAL_RCCEx_GetPLL2ClockFreq+0x20c>)
 8000f72:	6bdb      	ldr	r3, [r3, #60]	; 0x3c
 8000f74:	f3c3 0308 	ubfx	r3, r3, #0, #9
 8000f78:	ee07 3a10 	vmov	s14, r3
 8000f7c:	eeb8 7a47 	vcvt.f32.u32	s14, s14
 8000f80:	ed9f 6a57 	vldr	s12, [pc, #348]	; 80010e0 <HAL_RCCEx_GetPLL2ClockFreq+0x214>
 8000f84:	ee67 7a86 	vmul.f32	s15, s15, s12
 8000f88:	ee77 7a27 	vadd.f32	s15, s14, s15
 8000f8c:	eeb7 7a00 	vmov.f32	s14, #112	; 0x3f800000  1.0
 8000f90:	ee77 7a87 	vadd.f32	s15, s15, s14
 8000f94:	ee66 7aa7 	vmul.f32	s15, s13, s15
 8000f98:	4b4f      	ldr	r3, [pc, #316]	; (80010d8 <HAL_RCCEx_GetPLL2ClockFreq+0x20c>)
 8000f9a:	6adb      	ldr	r3, [r3, #44]	; 0x2c
 8000f9c:	f413 3f80 	tst.w	r3, #65536	; 0x10000
 8000fa0:	f000 8090 	beq.w	80010c4 <HAL_RCCEx_GetPLL2ClockFreq+0x1f8>
 8000fa4:	4b4c      	ldr	r3, [pc, #304]	; (80010d8 <HAL_RCCEx_GetPLL2ClockFreq+0x20c>)
 8000fa6:	6bdb      	ldr	r3, [r3, #60]	; 0x3c
 8000fa8:	f3c3 2346 	ubfx	r3, r3, #9, #7
 8000fac:	ee07 3a10 	vmov	s14, r3
 8000fb0:	eeb8 7a47 	vcvt.f32.u32	s14, s14
 8000fb4:	eef7 6a00 	vmov.f32	s13, #112	; 0x3f800000  1.0
 8000fb8:	ee37 7a26 	vadd.f32	s14, s14, s13
 8000fbc:	eec7 6a87 	vdiv.f32	s13, s15, s14
 8000fc0:	eefc 6ae6 	vcvt.u32.f32	s13, s13
 8000fc4:	edc0 6a00 	vstr	s13, [r0]
 8000fc8:	4b43      	ldr	r3, [pc, #268]	; (80010d8 <HAL_RCCEx_GetPLL2ClockFreq+0x20c>)
 8000fca:	6adb      	ldr	r3, [r3, #44]	; 0x2c
 8000fcc:	f413 3f00 	tst.w	r3, #131072	; 0x20000
 8000fd0:	d07b      	beq.n	80010ca <HAL_RCCEx_GetPLL2ClockFreq+0x1fe>
 8000fd2:	4b41      	ldr	r3, [pc, #260]	; (80010d8 <HAL_RCCEx_GetPLL2ClockFreq+0x20c>)
 8000fd4:	6bdb      	ldr	r3, [r3, #60]	; 0x3c
 8000fd6:	f3c3 4306 	ubfx	r3, r3, #16, #7
 8000fda:	ee07 3a10 	vmov	s14, r3
 8000fde:	eeb8 7a47 	vcvt.f32.u32	s14, s14
 8000fe2:	eef7 6a00 	vmov.f32	s13, #112	; 0x3f800000  1.0
 8000fe6:	ee37 7a26 	vadd.f32	s14, s14, s13
 8000fea:	eec7 6a87 	vdiv.f32	s13, s15, s14
 8000fee:	eefc 6ae6 	vcvt.u32.f32	s13, s13
 8000ff2:	edc0 6a01 	vstr	s13, [r0, #4]
 8000ff6:	4b38      	ldr	r3, [pc, #224]	; (80010d8 <HAL_RCCEx_GetPLL2ClockFreq+0x20c>)
 8000ff8:	6adb      	ldr	r3, [r3, #44]	; 0x2c
 8000ffa:	f413 2f80 	tst.w	r3, #262144	; 0x40000
 8000ffe:	d067      	beq.n	80010d0 <HAL_RCCEx_GetPLL2ClockFreq+0x204>
 8001000:	4b35      	ldr	r3, [pc, #212]	; (80010d8 <HAL_RCCEx_GetPLL2ClockFreq+0x20c>)
 8001002:	6bdb      	ldr	r3, [r3, #60]	; 0x3c
 8001004:	f3c3 6306 	ubfx	r3, r3, #24, #7
 8001008:	ee07 3a10 	vmov	s14, r3
 800100c:	eeb8 7a47 	vcvt.f32.u32	s14, s14
 8001010:	eef7 6a00 	vmov.f32	s13, #112	; 0x3f800000  1.0
 8001014:	ee37 7a26 	vadd.f32	s14, s14, s13
 8001018:	eec7 6a87 	vdiv.f32	s13, s15, s14
 800101c:	eefc 6ae6 	vcvt.u32.f32	s13, s13
 8001020:	edc0 6a02 	vstr	s13, [r0, #8]
 8001024:	bd10      	pop	{r4, pc}
 8001026:	4b2c      	ldr	r3, [pc, #176]	; (80010d8 <HAL_RCCEx_GetPLL2ClockFreq+0x20c>)
 8001028:	689b      	ldr	r3, [r3, #8]
 800102a:	f413 0f00 	tst.w	r3, #8388608	; 0x800000
 800102e:	d020      	beq.n	8001072 <HAL_RCCEx_GetPLL2ClockFreq+0x1a6>
 8001030:	4b29      	ldr	r3, [pc, #164]	; (80010d8 <HAL_RCCEx_GetPLL2ClockFreq+0x20c>)
 8001032:	689b      	ldr	r3, [r3, #8]
 8001034:	0f1b      	lsrs	r3, r3, #28
 8001036:	4c29      	ldr	r4, [pc, #164]	; (80010dc <HAL_RCCEx_GetPLL2ClockFreq+0x210>)
 8001038:	eb04 0383 	add.w	r3, r4, r3, lsl #2
 800103c:	ed93 6a00 	vldr	s12, [r3]
 8001040:	eeb8 6a46 	vcvt.f32.u32	s12, s12
 8001044:	ee07 2a10 	vmov	s14, r2
 8001048:	eeb8 7a47 	vcvt.f32.u32	s14, s14
 800104c:	eec6 6a07 	vdiv.f32	s13, s12, s14
 8001050:	ee07 1a10 	vmov	s14, r1
 8001054:	eeb8 7a47 	vcvt.f32.u32	s14, s14
 8001058:	ed9f 6a21 	vldr	s12, [pc, #132]	; 80010e0 <HAL_RCCEx_GetPLL2ClockFreq+0x214>
 800105c:	ee67 7a86 	vmul.f32	s15, s15, s12
 8001060:	ee77 7a27 	vadd.f32	s15, s14, s15
 8001064:	eeb7 7a00 	vmov.f32	s14, #112	; 0x3f800000  1.0
 8001068:	ee77 7a87 	vadd.f32	s15, s15, s14
 800106c:	ee66 7aa7 	vmul.f32	s15, s13, s15
 8001070:	e792      	b.n	8000f98 <HAL_RCCEx_GetPLL2ClockFreq+0xcc>
 8001072:	4b19      	ldr	r3, [pc, #100]	; (80010d8 <HAL_RCCEx_GetPLL2ClockFreq+0x20c>)
 8001074:	f8d3 30f4 	ldr.w	r3, [r3, #244]	; 0xf4
 8001078:	f3c3 3303 	ubfx	r3, r3, #12, #4
 800107c:	e7db      	b.n	8001036 <HAL_RCCEx_GetPLL2ClockFreq+0x16a>
 800107e:	ee07 2a10 	vmov	s14, r2
 8001082:	eeb8 7a47 	vcvt.f32.u32	s14, s14
 8001086:	ed9f 6a17 	vldr	s12, [pc, #92]	; 80010e4 <HAL_RCCEx_GetPLL2ClockFreq+0x218>
 800108a:	eec6 6a07 	vdiv.f32	s13, s12, s14
 800108e:	4b12      	ldr	r3, [pc, #72]	; (80010d8 <HAL_RCCEx_GetPLL2ClockFreq+0x20c>)
 8001090:	6bdb      	ldr	r3, [r3, #60]	; 0x3c
 8001092:	f3c3 0308 	ubfx	r3, r3, #0, #9
 8001096:	ee07 3a10 	vmov	s14, r3
 800109a:	eeb8 7a47 	vcvt.f32.u32	s14, s14
 800109e:	ed9f 6a10 	vldr	s12, [pc, #64]	; 80010e0 <HAL_RCCEx_GetPLL2ClockFreq+0x214>
 80010a2:	ee67 7a86 	vmul.f32	s15, s15, s12
 80010a6:	ee77 7a27 	vadd.f32	s15, s14, s15
 80010aa:	eeb7 7a00 	vmov.f32	s14, #112	; 0x3f800000  1.0
 80010ae:	ee77 7a87 	vadd.f32	s15, s15, s14
 80010b2:	ee66 7aa7 	vmul.f32	s15, s13, s15
 80010b6:	e76f      	b.n	8000f98 <HAL_RCCEx_GetPLL2ClockFreq+0xcc>
 80010b8:	4b07      	ldr	r3, [pc, #28]	; (80010d8 <HAL_RCCEx_GetPLL2ClockFreq+0x20c>)
 80010ba:	f8d3 30f4 	ldr.w	r3, [r3, #244]	; 0xf4
 80010be:	f3c3 3303 	ubfx	r3, r3, #12, #4
 80010c2:	e72f      	b.n	8000f24 <HAL_RCCEx_GetPLL2ClockFreq+0x58>
 80010c4:	2300      	movs	r3, #0
 80010c6:	6003      	str	r3, [r0, #0]
 80010c8:	e77e      	b.n	8000fc8 <HAL_RCCEx_GetPLL2ClockFreq+0xfc>
 80010ca:	2300      	movs	r3, #0
 80010cc:	6043      	str	r3, [r0, #4]
 80010ce:	e792      	b.n	8000ff6 <HAL_RCCEx_GetPLL2ClockFreq+0x12a>
 80010d0:	2300      	movs	r3, #0
 80010d2:	6083      	str	r3, [r0, #8]
 80010d4:	e7a6      	b.n	8001024 <HAL_RCCEx_GetPLL2ClockFreq+0x158>
 80010d6:	bf00      	nop
 80010d8:	46020c00 	strmi	r0, [r2], -r0, lsl #24
 80010dc:	08003da0 	stmdaeq	r0, {r5, r7, r8, sl, fp, ip, sp}
 80010e0:	39000000 	stmdbcc	r0, {}	; <UNPREDICTABLE>
 80010e4:	4b742400 	blmi	9d0a0ec <_sidata+0x1d06254>

080010e8 <HAL_RCCEx_GetPLL3ClockFreq>:
 80010e8:	b510      	push	{r4, lr}
 80010ea:	4c82      	ldr	r4, [pc, #520]	; (80012f4 <HAL_RCCEx_GetPLL3ClockFreq+0x20c>)
 80010ec:	6c61      	ldr	r1, [r4, #68]	; 0x44
 80010ee:	f3c1 0108 	ubfx	r1, r1, #0, #9
 80010f2:	6b23      	ldr	r3, [r4, #48]	; 0x30
 80010f4:	f003 0c03 	and.w	ip, r3, #3
 80010f8:	6b23      	ldr	r3, [r4, #48]	; 0x30
 80010fa:	f3c3 2303 	ubfx	r3, r3, #8, #4
 80010fe:	1c5a      	adds	r2, r3, #1
 8001100:	6b23      	ldr	r3, [r4, #48]	; 0x30
 8001102:	f3c3 1e00 	ubfx	lr, r3, #4, #1
 8001106:	6ca3      	ldr	r3, [r4, #72]	; 0x48
 8001108:	f3c3 03cc 	ubfx	r3, r3, #3, #13
 800110c:	fb0e f303 	mul.w	r3, lr, r3
 8001110:	ee07 3a90 	vmov	s15, r3
 8001114:	eef8 7a67 	vcvt.f32.u32	s15, s15
 8001118:	f1bc 0f02 	cmp.w	ip, #2
 800111c:	d02e      	beq.n	800117c <HAL_RCCEx_GetPLL3ClockFreq+0x94>
 800111e:	f1bc 0f03 	cmp.w	ip, #3
 8001122:	f000 80ba 	beq.w	800129a <HAL_RCCEx_GetPLL3ClockFreq+0x1b2>
 8001126:	f1bc 0f01 	cmp.w	ip, #1
 800112a:	f000 808a 	beq.w	8001242 <HAL_RCCEx_GetPLL3ClockFreq+0x15a>
 800112e:	4b71      	ldr	r3, [pc, #452]	; (80012f4 <HAL_RCCEx_GetPLL3ClockFreq+0x20c>)
 8001130:	689b      	ldr	r3, [r3, #8]
 8001132:	f413 0f00 	tst.w	r3, #8388608	; 0x800000
 8001136:	f000 80cd 	beq.w	80012d4 <HAL_RCCEx_GetPLL3ClockFreq+0x1ec>
 800113a:	4b6e      	ldr	r3, [pc, #440]	; (80012f4 <HAL_RCCEx_GetPLL3ClockFreq+0x20c>)
 800113c:	689b      	ldr	r3, [r3, #8]
 800113e:	0f1b      	lsrs	r3, r3, #28
 8001140:	4c6d      	ldr	r4, [pc, #436]	; (80012f8 <HAL_RCCEx_GetPLL3ClockFreq+0x210>)
 8001142:	eb04 0383 	add.w	r3, r4, r3, lsl #2
 8001146:	ed93 6a00 	vldr	s12, [r3]
 800114a:	eeb8 6a46 	vcvt.f32.u32	s12, s12
 800114e:	ee07 2a10 	vmov	s14, r2
 8001152:	eeb8 7a47 	vcvt.f32.u32	s14, s14
 8001156:	eec6 6a07 	vdiv.f32	s13, s12, s14
 800115a:	ee07 1a10 	vmov	s14, r1
 800115e:	eeb8 7a47 	vcvt.f32.u32	s14, s14
 8001162:	ed9f 6a66 	vldr	s12, [pc, #408]	; 80012fc <HAL_RCCEx_GetPLL3ClockFreq+0x214>
 8001166:	ee67 7a86 	vmul.f32	s15, s15, s12
 800116a:	ee77 7a27 	vadd.f32	s15, s14, s15
 800116e:	eeb7 7a00 	vmov.f32	s14, #112	; 0x3f800000  1.0
 8001172:	ee77 7a87 	vadd.f32	s15, s15, s14
 8001176:	ee66 7aa7 	vmul.f32	s15, s13, s15
 800117a:	e01b      	b.n	80011b4 <HAL_RCCEx_GetPLL3ClockFreq+0xcc>
 800117c:	ee07 2a10 	vmov	s14, r2
 8001180:	eeb8 7a47 	vcvt.f32.u32	s14, s14
 8001184:	ed9f 6a5e 	vldr	s12, [pc, #376]	; 8001300 <HAL_RCCEx_GetPLL3ClockFreq+0x218>
 8001188:	eec6 6a07 	vdiv.f32	s13, s12, s14
 800118c:	4b59      	ldr	r3, [pc, #356]	; (80012f4 <HAL_RCCEx_GetPLL3ClockFreq+0x20c>)
 800118e:	6c5b      	ldr	r3, [r3, #68]	; 0x44
 8001190:	f3c3 0308 	ubfx	r3, r3, #0, #9
 8001194:	ee07 3a10 	vmov	s14, r3
 8001198:	eeb8 7a47 	vcvt.f32.u32	s14, s14
 800119c:	ed9f 6a57 	vldr	s12, [pc, #348]	; 80012fc <HAL_RCCEx_GetPLL3ClockFreq+0x214>
 80011a0:	ee67 7a86 	vmul.f32	s15, s15, s12
 80011a4:	ee77 7a27 	vadd.f32	s15, s14, s15
 80011a8:	eeb7 7a00 	vmov.f32	s14, #112	; 0x3f800000  1.0
 80011ac:	ee77 7a87 	vadd.f32	s15, s15, s14
 80011b0:	ee66 7aa7 	vmul.f32	s15, s13, s15
 80011b4:	4b4f      	ldr	r3, [pc, #316]	; (80012f4 <HAL_RCCEx_GetPLL3ClockFreq+0x20c>)
 80011b6:	6b1b      	ldr	r3, [r3, #48]	; 0x30
 80011b8:	f413 3f80 	tst.w	r3, #65536	; 0x10000
 80011bc:	f000 8090 	beq.w	80012e0 <HAL_RCCEx_GetPLL3ClockFreq+0x1f8>
 80011c0:	4b4c      	ldr	r3, [pc, #304]	; (80012f4 <HAL_RCCEx_GetPLL3ClockFreq+0x20c>)
 80011c2:	6c5b      	ldr	r3, [r3, #68]	; 0x44
 80011c4:	f3c3 2346 	ubfx	r3, r3, #9, #7
 80011c8:	ee07 3a10 	vmov	s14, r3
 80011cc:	eeb8 7a47 	vcvt.f32.u32	s14, s14
 80011d0:	eef7 6a00 	vmov.f32	s13, #112	; 0x3f800000  1.0
 80011d4:	ee37 7a26 	vadd.f32	s14, s14, s13
 80011d8:	eec7 6a87 	vdiv.f32	s13, s15, s14
 80011dc:	eefc 6ae6 	vcvt.u32.f32	s13, s13
 80011e0:	edc0 6a00 	vstr	s13, [r0]
 80011e4:	4b43      	ldr	r3, [pc, #268]	; (80012f4 <HAL_RCCEx_GetPLL3ClockFreq+0x20c>)
 80011e6:	6b1b      	ldr	r3, [r3, #48]	; 0x30
 80011e8:	f413 3f00 	tst.w	r3, #131072	; 0x20000
 80011ec:	d07b      	beq.n	80012e6 <HAL_RCCEx_GetPLL3ClockFreq+0x1fe>
 80011ee:	4b41      	ldr	r3, [pc, #260]	; (80012f4 <HAL_RCCEx_GetPLL3ClockFreq+0x20c>)
 80011f0:	6c5b      	ldr	r3, [r3, #68]	; 0x44
 80011f2:	f3c3 4306 	ubfx	r3, r3, #16, #7
 80011f6:	ee07 3a10 	vmov	s14, r3
 80011fa:	eeb8 7a47 	vcvt.f32.u32	s14, s14
 80011fe:	eef7 6a00 	vmov.f32	s13, #112	; 0x3f800000  1.0
 8001202:	ee37 7a26 	vadd.f32	s14, s14, s13
 8001206:	eec7 6a87 	vdiv.f32	s13, s15, s14
 800120a:	eefc 6ae6 	vcvt.u32.f32	s13, s13
 800120e:	edc0 6a01 	vstr	s13, [r0, #4]
 8001212:	4b38      	ldr	r3, [pc, #224]	; (80012f4 <HAL_RCCEx_GetPLL3ClockFreq+0x20c>)
 8001214:	6b1b      	ldr	r3, [r3, #48]	; 0x30
 8001216:	f413 2f80 	tst.w	r3, #262144	; 0x40000
 800121a:	d067      	beq.n	80012ec <HAL_RCCEx_GetPLL3ClockFreq+0x204>
 800121c:	4b35      	ldr	r3, [pc, #212]	; (80012f4 <HAL_RCCEx_GetPLL3ClockFreq+0x20c>)
 800121e:	6c5b      	ldr	r3, [r3, #68]	; 0x44
 8001220:	f3c3 6306 	ubfx	r3, r3, #24, #7
 8001224:	ee07 3a10 	vmov	s14, r3
 8001228:	eeb8 7a47 	vcvt.f32.u32	s14, s14
 800122c:	eef7 6a00 	vmov.f32	s13, #112	; 0x3f800000  1.0
 8001230:	ee37 7a26 	vadd.f32	s14, s14, s13
 8001234:	eec7 6a87 	vdiv.f32	s13, s15, s14
 8001238:	eefc 6ae6 	vcvt.u32.f32	s13, s13
 800123c:	edc0 6a02 	vstr	s13, [r0, #8]
 8001240:	bd10      	pop	{r4, pc}
 8001242:	4b2c      	ldr	r3, [pc, #176]	; (80012f4 <HAL_RCCEx_GetPLL3ClockFreq+0x20c>)
 8001244:	689b      	ldr	r3, [r3, #8]
 8001246:	f413 0f00 	tst.w	r3, #8388608	; 0x800000
 800124a:	d020      	beq.n	800128e <HAL_RCCEx_GetPLL3ClockFreq+0x1a6>
 800124c:	4b29      	ldr	r3, [pc, #164]	; (80012f4 <HAL_RCCEx_GetPLL3ClockFreq+0x20c>)
 800124e:	689b      	ldr	r3, [r3, #8]
 8001250:	0f1b      	lsrs	r3, r3, #28
 8001252:	4c29      	ldr	r4, [pc, #164]	; (80012f8 <HAL_RCCEx_GetPLL3ClockFreq+0x210>)
 8001254:	eb04 0383 	add.w	r3, r4, r3, lsl #2
 8001258:	ed93 6a00 	vldr	s12, [r3]
 800125c:	eeb8 6a46 	vcvt.f32.u32	s12, s12
 8001260:	ee07 2a10 	vmov	s14, r2
 8001264:	eeb8 7a47 	vcvt.f32.u32	s14, s14
 8001268:	eec6 6a07 	vdiv.f32	s13, s12, s14
 800126c:	ee07 1a10 	vmov	s14, r1
 8001270:	eeb8 7a47 	vcvt.f32.u32	s14, s14
 8001274:	ed9f 6a21 	vldr	s12, [pc, #132]	; 80012fc <HAL_RCCEx_GetPLL3ClockFreq+0x214>
 8001278:	ee67 7a86 	vmul.f32	s15, s15, s12
 800127c:	ee77 7a27 	vadd.f32	s15, s14, s15
 8001280:	eeb7 7a00 	vmov.f32	s14, #112	; 0x3f800000  1.0
 8001284:	ee77 7a87 	vadd.f32	s15, s15, s14
 8001288:	ee66 7aa7 	vmul.f32	s15, s13, s15
 800128c:	e792      	b.n	80011b4 <HAL_RCCEx_GetPLL3ClockFreq+0xcc>
 800128e:	4b19      	ldr	r3, [pc, #100]	; (80012f4 <HAL_RCCEx_GetPLL3ClockFreq+0x20c>)
 8001290:	f8d3 30f4 	ldr.w	r3, [r3, #244]	; 0xf4
 8001294:	f3c3 3303 	ubfx	r3, r3, #12, #4
 8001298:	e7db      	b.n	8001252 <HAL_RCCEx_GetPLL3ClockFreq+0x16a>
 800129a:	ee07 2a10 	vmov	s14, r2
 800129e:	eeb8 7a47 	vcvt.f32.u32	s14, s14
 80012a2:	ed9f 6a17 	vldr	s12, [pc, #92]	; 8001300 <HAL_RCCEx_GetPLL3ClockFreq+0x218>
 80012a6:	eec6 6a07 	vdiv.f32	s13, s12, s14
 80012aa:	4b12      	ldr	r3, [pc, #72]	; (80012f4 <HAL_RCCEx_GetPLL3ClockFreq+0x20c>)
 80012ac:	6c5b      	ldr	r3, [r3, #68]	; 0x44
 80012ae:	f3c3 0308 	ubfx	r3, r3, #0, #9
 80012b2:	ee07 3a10 	vmov	s14, r3
 80012b6:	eeb8 7a47 	vcvt.f32.u32	s14, s14
 80012ba:	ed9f 6a10 	vldr	s12, [pc, #64]	; 80012fc <HAL_RCCEx_GetPLL3ClockFreq+0x214>
 80012be:	ee67 7a86 	vmul.f32	s15, s15, s12
 80012c2:	ee77 7a27 	vadd.f32	s15, s14, s15
 80012c6:	eeb7 7a00 	vmov.f32	s14, #112	; 0x3f800000  1.0
 80012ca:	ee77 7a87 	vadd.f32	s15, s15, s14
 80012ce:	ee66 7aa7 	vmul.f32	s15, s13, s15
 80012d2:	e76f      	b.n	80011b4 <HAL_RCCEx_GetPLL3ClockFreq+0xcc>
 80012d4:	4b07      	ldr	r3, [pc, #28]	; (80012f4 <HAL_RCCEx_GetPLL3ClockFreq+0x20c>)
 80012d6:	f8d3 30f4 	ldr.w	r3, [r3, #244]	; 0xf4
 80012da:	f3c3 3303 	ubfx	r3, r3, #12, #4
 80012de:	e72f      	b.n	8001140 <HAL_RCCEx_GetPLL3ClockFreq+0x58>
 80012e0:	2300      	movs	r3, #0
 80012e2:	6003      	str	r3, [r0, #0]
 80012e4:	e77e      	b.n	80011e4 <HAL_RCCEx_GetPLL3ClockFreq+0xfc>
 80012e6:	2300      	movs	r3, #0
 80012e8:	6043      	str	r3, [r0, #4]
 80012ea:	e792      	b.n	8001212 <HAL_RCCEx_GetPLL3ClockFreq+0x12a>
 80012ec:	2300      	movs	r3, #0
 80012ee:	6083      	str	r3, [r0, #8]
 80012f0:	e7a6      	b.n	8001240 <HAL_RCCEx_GetPLL3ClockFreq+0x158>
 80012f2:	bf00      	nop
 80012f4:	46020c00 	strmi	r0, [r2], -r0, lsl #24
 80012f8:	08003da0 	stmdaeq	r0, {r5, r7, r8, sl, fp, ip, sp}
 80012fc:	39000000 	stmdbcc	r0, {}	; <UNPREDICTABLE>
 8001300:	4b742400 	blmi	9d0a308 <_sidata+0x1d06470>

08001304 <HAL_RCCEx_GetPeriphCLKFreq>:
 8001304:	f5a0 2380 	sub.w	r3, r0, #262144	; 0x40000
 8001308:	430b      	orrs	r3, r1
 800130a:	f000 80ad 	beq.w	8001468 <HAL_RCCEx_GetPeriphCLKFreq+0x164>
 800130e:	b500      	push	{lr}
 8001310:	b08b      	sub	sp, #44	; 0x2c
 8001312:	f5a0 5300 	sub.w	r3, r0, #8192	; 0x2000
 8001316:	430b      	orrs	r3, r1
 8001318:	f000 80d2 	beq.w	80014c0 <HAL_RCCEx_GetPeriphCLKFreq+0x1bc>
 800131c:	f5a0 4380 	sub.w	r3, r0, #16384	; 0x4000
 8001320:	430b      	orrs	r3, r1
 8001322:	f000 80fe 	beq.w	8001522 <HAL_RCCEx_GetPeriphCLKFreq+0x21e>
 8001326:	f5a0 5380 	sub.w	r3, r0, #4096	; 0x1000
 800132a:	430b      	orrs	r3, r1
 800132c:	f000 812e 	beq.w	800158c <HAL_RCCEx_GetPeriphCLKFreq+0x288>
 8001330:	f5a0 1380 	sub.w	r3, r0, #1048576	; 0x100000
 8001334:	430b      	orrs	r3, r1
 8001336:	f000 8141 	beq.w	80015bc <HAL_RCCEx_GetPeriphCLKFreq+0x2b8>
 800133a:	f5a0 1300 	sub.w	r3, r0, #2097152	; 0x200000
 800133e:	430b      	orrs	r3, r1
 8001340:	f000 8180 	beq.w	8001644 <HAL_RCCEx_GetPeriphCLKFreq+0x340>
 8001344:	1e43      	subs	r3, r0, #1
 8001346:	430b      	orrs	r3, r1
 8001348:	f000 81c7 	beq.w	80016da <HAL_RCCEx_GetPeriphCLKFreq+0x3d6>
 800134c:	1e83      	subs	r3, r0, #2
 800134e:	430b      	orrs	r3, r1
 8001350:	f000 81f0 	beq.w	8001734 <HAL_RCCEx_GetPeriphCLKFreq+0x430>
 8001354:	1f03      	subs	r3, r0, #4
 8001356:	430b      	orrs	r3, r1
 8001358:	f000 8211 	beq.w	800177e <HAL_RCCEx_GetPeriphCLKFreq+0x47a>
 800135c:	f1a0 0308 	sub.w	r3, r0, #8
 8001360:	430b      	orrs	r3, r1
 8001362:	f000 8231 	beq.w	80017c8 <HAL_RCCEx_GetPeriphCLKFreq+0x4c4>
 8001366:	f1a0 0310 	sub.w	r3, r0, #16
 800136a:	430b      	orrs	r3, r1
 800136c:	f000 8251 	beq.w	8001812 <HAL_RCCEx_GetPeriphCLKFreq+0x50e>
 8001370:	f100 4360 	add.w	r3, r0, #3758096384	; 0xe0000000
 8001374:	430b      	orrs	r3, r1
 8001376:	f000 8274 	beq.w	8001862 <HAL_RCCEx_GetPeriphCLKFreq+0x55e>
 800137a:	f1a0 0320 	sub.w	r3, r0, #32
 800137e:	430b      	orrs	r3, r1
 8001380:	f000 8297 	beq.w	80018b2 <HAL_RCCEx_GetPeriphCLKFreq+0x5ae>
 8001384:	f5a0 4300 	sub.w	r3, r0, #32768	; 0x8000
 8001388:	430b      	orrs	r3, r1
 800138a:	f000 82d0 	beq.w	800192e <HAL_RCCEx_GetPeriphCLKFreq+0x62a>
 800138e:	f5a0 3380 	sub.w	r3, r0, #65536	; 0x10000
 8001392:	430b      	orrs	r3, r1
 8001394:	f000 8317 	beq.w	80019c6 <HAL_RCCEx_GetPeriphCLKFreq+0x6c2>
 8001398:	f5a0 3300 	sub.w	r3, r0, #131072	; 0x20000
 800139c:	430b      	orrs	r3, r1
 800139e:	f000 8350 	beq.w	8001a42 <HAL_RCCEx_GetPeriphCLKFreq+0x73e>
 80013a2:	f1a0 0340 	sub.w	r3, r0, #64	; 0x40
 80013a6:	430b      	orrs	r3, r1
 80013a8:	f000 8388 	beq.w	8001abc <HAL_RCCEx_GetPeriphCLKFreq+0x7b8>
 80013ac:	f1a0 0380 	sub.w	r3, r0, #128	; 0x80
 80013b0:	430b      	orrs	r3, r1
 80013b2:	f000 83b7 	beq.w	8001b24 <HAL_RCCEx_GetPeriphCLKFreq+0x820>
 80013b6:	f5a0 7380 	sub.w	r3, r0, #256	; 0x100
 80013ba:	430b      	orrs	r3, r1
 80013bc:	f000 83e6 	beq.w	8001b8c <HAL_RCCEx_GetPeriphCLKFreq+0x888>
 80013c0:	f5a0 0380 	sub.w	r3, r0, #4194304	; 0x400000
 80013c4:	430b      	orrs	r3, r1
 80013c6:	f000 8418 	beq.w	8001bfa <HAL_RCCEx_GetPeriphCLKFreq+0x8f6>
 80013ca:	f100 4340 	add.w	r3, r0, #3221225472	; 0xc0000000
 80013ce:	430b      	orrs	r3, r1
 80013d0:	f000 8447 	beq.w	8001c62 <HAL_RCCEx_GetPeriphCLKFreq+0x95e>
 80013d4:	2900      	cmp	r1, #0
 80013d6:	bf08      	it	eq
 80013d8:	f1b0 4f00 	cmpeq.w	r0, #2147483648	; 0x80000000
 80013dc:	f000 847b 	beq.w	8001cd6 <HAL_RCCEx_GetPeriphCLKFreq+0x9d2>
 80013e0:	f5a0 6300 	sub.w	r3, r0, #2048	; 0x800
 80013e4:	430b      	orrs	r3, r1
 80013e6:	f000 84aa 	beq.w	8001d3e <HAL_RCCEx_GetPeriphCLKFreq+0xa3a>
 80013ea:	f5a0 7300 	sub.w	r3, r0, #512	; 0x200
 80013ee:	430b      	orrs	r3, r1
 80013f0:	f000 84eb 	beq.w	8001dca <HAL_RCCEx_GetPeriphCLKFreq+0xac6>
 80013f4:	f5a0 6380 	sub.w	r3, r0, #1024	; 0x400
 80013f8:	430b      	orrs	r3, r1
 80013fa:	f000 852c 	beq.w	8001e56 <HAL_RCCEx_GetPeriphCLKFreq+0xb52>
 80013fe:	f100 4378 	add.w	r3, r0, #4160749568	; 0xf8000000
 8001402:	430b      	orrs	r3, r1
 8001404:	f000 8558 	beq.w	8001eb8 <HAL_RCCEx_GetPeriphCLKFreq+0xbb4>
 8001408:	f5a0 0300 	sub.w	r3, r0, #8388608	; 0x800000
 800140c:	430b      	orrs	r3, r1
 800140e:	f000 8571 	beq.w	8001ef4 <HAL_RCCEx_GetPeriphCLKFreq+0xbf0>
 8001412:	f100 437f 	add.w	r3, r0, #4278190080	; 0xff000000
 8001416:	430b      	orrs	r3, r1
 8001418:	f000 85ac 	beq.w	8001f74 <HAL_RCCEx_GetPeriphCLKFreq+0xc70>
 800141c:	f100 437e 	add.w	r3, r0, #4261412864	; 0xfe000000
 8001420:	430b      	orrs	r3, r1
 8001422:	f000 85e1 	beq.w	8001fe8 <HAL_RCCEx_GetPeriphCLKFreq+0xce4>
 8001426:	f100 437c 	add.w	r3, r0, #4227858432	; 0xfc000000
 800142a:	430b      	orrs	r3, r1
 800142c:	f000 8625 	beq.w	800207a <HAL_RCCEx_GetPeriphCLKFreq+0xd76>
 8001430:	2901      	cmp	r1, #1
 8001432:	bf08      	it	eq
 8001434:	2800      	cmpeq	r0, #0
 8001436:	f000 8658 	beq.w	80020ea <HAL_RCCEx_GetPeriphCLKFreq+0xde6>
 800143a:	f100 4370 	add.w	r3, r0, #4026531840	; 0xf0000000
 800143e:	430b      	orrs	r3, r1
 8001440:	f000 8679 	beq.w	8002136 <HAL_RCCEx_GetPeriphCLKFreq+0xe32>
 8001444:	f5a0 2300 	sub.w	r3, r0, #524288	; 0x80000
 8001448:	430b      	orrs	r3, r1
 800144a:	f000 8693 	beq.w	8002174 <HAL_RCCEx_GetPeriphCLKFreq+0xe70>
 800144e:	2902      	cmp	r1, #2
 8001450:	bf08      	it	eq
 8001452:	2800      	cmpeq	r0, #0
 8001454:	f000 86af 	beq.w	80021b6 <HAL_RCCEx_GetPeriphCLKFreq+0xeb2>
 8001458:	2908      	cmp	r1, #8
 800145a:	bf08      	it	eq
 800145c:	2800      	cmpeq	r0, #0
 800145e:	f000 86c3 	beq.w	80021e8 <HAL_RCCEx_GetPeriphCLKFreq+0xee4>
 8001462:	2000      	movs	r0, #0
 8001464:	f000 bef4 	b.w	8002250 <HAL_RCCEx_GetPeriphCLKFreq+0xf4c>
 8001468:	4aae      	ldr	r2, [pc, #696]	; (8001724 <HAL_RCCEx_GetPeriphCLKFreq+0x420>)
 800146a:	f8d2 30f0 	ldr.w	r3, [r2, #240]	; 0xf0
 800146e:	f403 7340 	and.w	r3, r3, #768	; 0x300
 8001472:	f8d2 20f0 	ldr.w	r2, [r2, #240]	; 0xf0
 8001476:	f012 0f02 	tst.w	r2, #2
 800147a:	d003      	beq.n	8001484 <HAL_RCCEx_GetPeriphCLKFreq+0x180>
 800147c:	f5b3 7f80 	cmp.w	r3, #256	; 0x100
 8001480:	f000 86da 	beq.w	8002238 <HAL_RCCEx_GetPeriphCLKFreq+0xf34>
 8001484:	4aa7      	ldr	r2, [pc, #668]	; (8001724 <HAL_RCCEx_GetPeriphCLKFreq+0x420>)
 8001486:	f8d2 20f0 	ldr.w	r2, [r2, #240]	; 0xf0
 800148a:	f012 6f00 	tst.w	r2, #134217728	; 0x8000000
 800148e:	d002      	beq.n	8001496 <HAL_RCCEx_GetPeriphCLKFreq+0x192>
 8001490:	f5b3 7f00 	cmp.w	r3, #512	; 0x200
 8001494:	d00b      	beq.n	80014ae <HAL_RCCEx_GetPeriphCLKFreq+0x1aa>
 8001496:	4aa3      	ldr	r2, [pc, #652]	; (8001724 <HAL_RCCEx_GetPeriphCLKFreq+0x420>)
 8001498:	6812      	ldr	r2, [r2, #0]
 800149a:	f412 3f00 	tst.w	r2, #131072	; 0x20000
 800149e:	f000 86d1 	beq.w	8002244 <HAL_RCCEx_GetPeriphCLKFreq+0xf40>
 80014a2:	f5b3 7f40 	cmp.w	r3, #768	; 0x300
 80014a6:	f000 86cf 	beq.w	8002248 <HAL_RCCEx_GetPeriphCLKFreq+0xf44>
 80014aa:	2000      	movs	r0, #0
 80014ac:	4770      	bx	lr
 80014ae:	4b9d      	ldr	r3, [pc, #628]	; (8001724 <HAL_RCCEx_GetPeriphCLKFreq+0x420>)
 80014b0:	f8d3 30f0 	ldr.w	r3, [r3, #240]	; 0xf0
 80014b4:	f013 5f80 	tst.w	r3, #268435456	; 0x10000000
 80014b8:	f000 86c1 	beq.w	800223e <HAL_RCCEx_GetPeriphCLKFreq+0xf3a>
 80014bc:	20fa      	movs	r0, #250	; 0xfa
 80014be:	4770      	bx	lr
 80014c0:	4b98      	ldr	r3, [pc, #608]	; (8001724 <HAL_RCCEx_GetPeriphCLKFreq+0x420>)
 80014c2:	f8d3 30e4 	ldr.w	r3, [r3, #228]	; 0xe4
 80014c6:	f003 03e0 	and.w	r3, r3, #224	; 0xe0
 80014ca:	2b40      	cmp	r3, #64	; 0x40
 80014cc:	d01d      	beq.n	800150a <HAL_RCCEx_GetPeriphCLKFreq+0x206>
 80014ce:	d90d      	bls.n	80014ec <HAL_RCCEx_GetPeriphCLKFreq+0x1e8>
 80014d0:	2b60      	cmp	r3, #96	; 0x60
 80014d2:	f000 86bb 	beq.w	800224c <HAL_RCCEx_GetPeriphCLKFreq+0xf48>
 80014d6:	2b80      	cmp	r3, #128	; 0x80
 80014d8:	d114      	bne.n	8001504 <HAL_RCCEx_GetPeriphCLKFreq+0x200>
 80014da:	4b92      	ldr	r3, [pc, #584]	; (8001724 <HAL_RCCEx_GetPeriphCLKFreq+0x420>)
 80014dc:	6818      	ldr	r0, [r3, #0]
 80014de:	f410 6080 	ands.w	r0, r0, #1024	; 0x400
 80014e2:	f000 86b5 	beq.w	8002250 <HAL_RCCEx_GetPeriphCLKFreq+0xf4c>
 80014e6:	4890      	ldr	r0, [pc, #576]	; (8001728 <HAL_RCCEx_GetPeriphCLKFreq+0x424>)
 80014e8:	f000 beb2 	b.w	8002250 <HAL_RCCEx_GetPeriphCLKFreq+0xf4c>
 80014ec:	b19b      	cbz	r3, 8001516 <HAL_RCCEx_GetPeriphCLKFreq+0x212>
 80014ee:	2b20      	cmp	r3, #32
 80014f0:	d105      	bne.n	80014fe <HAL_RCCEx_GetPeriphCLKFreq+0x1fa>
 80014f2:	a801      	add	r0, sp, #4
 80014f4:	f7ff fdf8 	bl	80010e8 <HAL_RCCEx_GetPLL3ClockFreq>
 80014f8:	9801      	ldr	r0, [sp, #4]
 80014fa:	f000 bea9 	b.w	8002250 <HAL_RCCEx_GetPeriphCLKFreq+0xf4c>
 80014fe:	2000      	movs	r0, #0
 8001500:	f000 bea6 	b.w	8002250 <HAL_RCCEx_GetPeriphCLKFreq+0xf4c>
 8001504:	2000      	movs	r0, #0
 8001506:	f000 bea3 	b.w	8002250 <HAL_RCCEx_GetPeriphCLKFreq+0xf4c>
 800150a:	a807      	add	r0, sp, #28
 800150c:	f7ff fbd0 	bl	8000cb0 <HAL_RCCEx_GetPLL1ClockFreq>
 8001510:	9807      	ldr	r0, [sp, #28]
 8001512:	f000 be9d 	b.w	8002250 <HAL_RCCEx_GetPeriphCLKFreq+0xf4c>
 8001516:	a804      	add	r0, sp, #16
 8001518:	f7ff fcd8 	bl	8000ecc <HAL_RCCEx_GetPLL2ClockFreq>
 800151c:	9804      	ldr	r0, [sp, #16]
 800151e:	f000 be97 	b.w	8002250 <HAL_RCCEx_GetPeriphCLKFreq+0xf4c>
 8001522:	4b80      	ldr	r3, [pc, #512]	; (8001724 <HAL_RCCEx_GetPeriphCLKFreq+0x420>)
 8001524:	f8d3 30e4 	ldr.w	r3, [r3, #228]	; 0xe4
 8001528:	f403 63e0 	and.w	r3, r3, #1792	; 0x700
 800152c:	f5b3 7f00 	cmp.w	r3, #512	; 0x200
 8001530:	d020      	beq.n	8001574 <HAL_RCCEx_GetPeriphCLKFreq+0x270>
 8001532:	d90f      	bls.n	8001554 <HAL_RCCEx_GetPeriphCLKFreq+0x250>
 8001534:	f5b3 7f40 	cmp.w	r3, #768	; 0x300
 8001538:	f000 868d 	beq.w	8002256 <HAL_RCCEx_GetPeriphCLKFreq+0xf52>
 800153c:	f5b3 6f80 	cmp.w	r3, #1024	; 0x400
 8001540:	d115      	bne.n	800156e <HAL_RCCEx_GetPeriphCLKFreq+0x26a>
 8001542:	4b78      	ldr	r3, [pc, #480]	; (8001724 <HAL_RCCEx_GetPeriphCLKFreq+0x420>)
 8001544:	6818      	ldr	r0, [r3, #0]
 8001546:	f410 6080 	ands.w	r0, r0, #1024	; 0x400
 800154a:	f000 8681 	beq.w	8002250 <HAL_RCCEx_GetPeriphCLKFreq+0xf4c>
 800154e:	4876      	ldr	r0, [pc, #472]	; (8001728 <HAL_RCCEx_GetPeriphCLKFreq+0x424>)
 8001550:	f000 be7e 	b.w	8002250 <HAL_RCCEx_GetPeriphCLKFreq+0xf4c>
 8001554:	b1a3      	cbz	r3, 8001580 <HAL_RCCEx_GetPeriphCLKFreq+0x27c>
 8001556:	f5b3 7f80 	cmp.w	r3, #256	; 0x100
 800155a:	d105      	bne.n	8001568 <HAL_RCCEx_GetPeriphCLKFreq+0x264>
 800155c:	a801      	add	r0, sp, #4
 800155e:	f7ff fdc3 	bl	80010e8 <HAL_RCCEx_GetPLL3ClockFreq>
 8001562:	9801      	ldr	r0, [sp, #4]
 8001564:	f000 be74 	b.w	8002250 <HAL_RCCEx_GetPeriphCLKFreq+0xf4c>
 8001568:	2000      	movs	r0, #0
 800156a:	f000 be71 	b.w	8002250 <HAL_RCCEx_GetPeriphCLKFreq+0xf4c>
 800156e:	2000      	movs	r0, #0
 8001570:	f000 be6e 	b.w	8002250 <HAL_RCCEx_GetPeriphCLKFreq+0xf4c>
 8001574:	a807      	add	r0, sp, #28
 8001576:	f7ff fb9b 	bl	8000cb0 <HAL_RCCEx_GetPLL1ClockFreq>
 800157a:	9807      	ldr	r0, [sp, #28]
 800157c:	f000 be68 	b.w	8002250 <HAL_RCCEx_GetPeriphCLKFreq+0xf4c>
 8001580:	a804      	add	r0, sp, #16
 8001582:	f7ff fca3 	bl	8000ecc <HAL_RCCEx_GetPLL2ClockFreq>
 8001586:	9804      	ldr	r0, [sp, #16]
 8001588:	f000 be62 	b.w	8002250 <HAL_RCCEx_GetPeriphCLKFreq+0xf4c>
 800158c:	4a65      	ldr	r2, [pc, #404]	; (8001724 <HAL_RCCEx_GetPeriphCLKFreq+0x420>)
 800158e:	f8d2 30e4 	ldr.w	r3, [r2, #228]	; 0xe4
 8001592:	f403 6300 	and.w	r3, r3, #2048	; 0x800
 8001596:	6812      	ldr	r2, [r2, #0]
 8001598:	f412 6f80 	tst.w	r2, #1024	; 0x400
 800159c:	d002      	beq.n	80015a4 <HAL_RCCEx_GetPeriphCLKFreq+0x2a0>
 800159e:	2b00      	cmp	r3, #0
 80015a0:	f000 865c 	beq.w	800225c <HAL_RCCEx_GetPeriphCLKFreq+0xf58>
 80015a4:	4a5f      	ldr	r2, [pc, #380]	; (8001724 <HAL_RCCEx_GetPeriphCLKFreq+0x420>)
 80015a6:	6812      	ldr	r2, [r2, #0]
 80015a8:	f412 6f80 	tst.w	r2, #1024	; 0x400
 80015ac:	f000 8658 	beq.w	8002260 <HAL_RCCEx_GetPeriphCLKFreq+0xf5c>
 80015b0:	2b00      	cmp	r3, #0
 80015b2:	f040 8657 	bne.w	8002264 <HAL_RCCEx_GetPeriphCLKFreq+0xf60>
 80015b6:	2000      	movs	r0, #0
 80015b8:	f000 be4a 	b.w	8002250 <HAL_RCCEx_GetPeriphCLKFreq+0xf4c>
 80015bc:	4b59      	ldr	r3, [pc, #356]	; (8001724 <HAL_RCCEx_GetPeriphCLKFreq+0x420>)
 80015be:	f8d3 30e0 	ldr.w	r3, [r3, #224]	; 0xe0
 80015c2:	f003 6340 	and.w	r3, r3, #201326592	; 0xc000000
 80015c6:	f1b3 6f00 	cmp.w	r3, #134217728	; 0x8000000
 80015ca:	d026      	beq.n	800161a <HAL_RCCEx_GetPeriphCLKFreq+0x316>
 80015cc:	d80c      	bhi.n	80015e8 <HAL_RCCEx_GetPeriphCLKFreq+0x2e4>
 80015ce:	b353      	cbz	r3, 8001626 <HAL_RCCEx_GetPeriphCLKFreq+0x322>
 80015d0:	f1b3 6f80 	cmp.w	r3, #67108864	; 0x4000000
 80015d4:	d105      	bne.n	80015e2 <HAL_RCCEx_GetPeriphCLKFreq+0x2de>
 80015d6:	a804      	add	r0, sp, #16
 80015d8:	f7ff fc78 	bl	8000ecc <HAL_RCCEx_GetPLL2ClockFreq>
 80015dc:	9805      	ldr	r0, [sp, #20]
 80015de:	f000 be37 	b.w	8002250 <HAL_RCCEx_GetPeriphCLKFreq+0xf4c>
 80015e2:	2000      	movs	r0, #0
 80015e4:	f000 be34 	b.w	8002250 <HAL_RCCEx_GetPeriphCLKFreq+0xf4c>
 80015e8:	f1b3 6f40 	cmp.w	r3, #201326592	; 0xc000000
 80015ec:	d112      	bne.n	8001614 <HAL_RCCEx_GetPeriphCLKFreq+0x310>
 80015ee:	4b4d      	ldr	r3, [pc, #308]	; (8001724 <HAL_RCCEx_GetPeriphCLKFreq+0x420>)
 80015f0:	6818      	ldr	r0, [r3, #0]
 80015f2:	f010 0020 	ands.w	r0, r0, #32
 80015f6:	f000 862b 	beq.w	8002250 <HAL_RCCEx_GetPeriphCLKFreq+0xf4c>
 80015fa:	689b      	ldr	r3, [r3, #8]
 80015fc:	f413 0f00 	tst.w	r3, #8388608	; 0x800000
 8001600:	d01a      	beq.n	8001638 <HAL_RCCEx_GetPeriphCLKFreq+0x334>
 8001602:	4b48      	ldr	r3, [pc, #288]	; (8001724 <HAL_RCCEx_GetPeriphCLKFreq+0x420>)
 8001604:	689b      	ldr	r3, [r3, #8]
 8001606:	f3c3 6303 	ubfx	r3, r3, #24, #4
 800160a:	4a48      	ldr	r2, [pc, #288]	; (800172c <HAL_RCCEx_GetPeriphCLKFreq+0x428>)
 800160c:	f852 0023 	ldr.w	r0, [r2, r3, lsl #2]
 8001610:	f000 be1e 	b.w	8002250 <HAL_RCCEx_GetPeriphCLKFreq+0xf4c>
 8001614:	2000      	movs	r0, #0
 8001616:	f000 be1b 	b.w	8002250 <HAL_RCCEx_GetPeriphCLKFreq+0xf4c>
 800161a:	a807      	add	r0, sp, #28
 800161c:	f7ff fb48 	bl	8000cb0 <HAL_RCCEx_GetPLL1ClockFreq>
 8001620:	9808      	ldr	r0, [sp, #32]
 8001622:	f000 be15 	b.w	8002250 <HAL_RCCEx_GetPeriphCLKFreq+0xf4c>
 8001626:	4b3f      	ldr	r3, [pc, #252]	; (8001724 <HAL_RCCEx_GetPeriphCLKFreq+0x420>)
 8001628:	6818      	ldr	r0, [r3, #0]
 800162a:	f410 5000 	ands.w	r0, r0, #8192	; 0x2000
 800162e:	f000 860f 	beq.w	8002250 <HAL_RCCEx_GetPeriphCLKFreq+0xf4c>
 8001632:	483f      	ldr	r0, [pc, #252]	; (8001730 <HAL_RCCEx_GetPeriphCLKFreq+0x42c>)
 8001634:	f000 be0c 	b.w	8002250 <HAL_RCCEx_GetPeriphCLKFreq+0xf4c>
 8001638:	4b3a      	ldr	r3, [pc, #232]	; (8001724 <HAL_RCCEx_GetPeriphCLKFreq+0x420>)
 800163a:	f8d3 30f4 	ldr.w	r3, [r3, #244]	; 0xf4
 800163e:	f3c3 2303 	ubfx	r3, r3, #8, #4
 8001642:	e7e2      	b.n	800160a <HAL_RCCEx_GetPeriphCLKFreq+0x306>
 8001644:	4b37      	ldr	r3, [pc, #220]	; (8001724 <HAL_RCCEx_GetPeriphCLKFreq+0x420>)
 8001646:	f8d3 00e4 	ldr.w	r0, [r3, #228]	; 0xe4
 800164a:	f410 4080 	ands.w	r0, r0, #16384	; 0x4000
 800164e:	d13e      	bne.n	80016ce <HAL_RCCEx_GetPeriphCLKFreq+0x3ca>
 8001650:	f8d3 30e0 	ldr.w	r3, [r3, #224]	; 0xe0
 8001654:	f003 6340 	and.w	r3, r3, #201326592	; 0xc000000
 8001658:	f1b3 6f00 	cmp.w	r3, #134217728	; 0x8000000
 800165c:	d022      	beq.n	80016a4 <HAL_RCCEx_GetPeriphCLKFreq+0x3a0>
 800165e:	d80a      	bhi.n	8001676 <HAL_RCCEx_GetPeriphCLKFreq+0x372>
 8001660:	b333      	cbz	r3, 80016b0 <HAL_RCCEx_GetPeriphCLKFreq+0x3ac>
 8001662:	f1b3 6f80 	cmp.w	r3, #67108864	; 0x4000000
 8001666:	f040 85f3 	bne.w	8002250 <HAL_RCCEx_GetPeriphCLKFreq+0xf4c>
 800166a:	a804      	add	r0, sp, #16
 800166c:	f7ff fc2e 	bl	8000ecc <HAL_RCCEx_GetPLL2ClockFreq>
 8001670:	9805      	ldr	r0, [sp, #20]
 8001672:	f000 bded 	b.w	8002250 <HAL_RCCEx_GetPeriphCLKFreq+0xf4c>
 8001676:	f1b3 6f40 	cmp.w	r3, #201326592	; 0xc000000
 800167a:	f040 85e9 	bne.w	8002250 <HAL_RCCEx_GetPeriphCLKFreq+0xf4c>
 800167e:	4b29      	ldr	r3, [pc, #164]	; (8001724 <HAL_RCCEx_GetPeriphCLKFreq+0x420>)
 8001680:	6818      	ldr	r0, [r3, #0]
 8001682:	f010 0020 	ands.w	r0, r0, #32
 8001686:	f000 85e3 	beq.w	8002250 <HAL_RCCEx_GetPeriphCLKFreq+0xf4c>
 800168a:	689b      	ldr	r3, [r3, #8]
 800168c:	f413 0f00 	tst.w	r3, #8388608	; 0x800000
 8001690:	d017      	beq.n	80016c2 <HAL_RCCEx_GetPeriphCLKFreq+0x3be>
 8001692:	4b24      	ldr	r3, [pc, #144]	; (8001724 <HAL_RCCEx_GetPeriphCLKFreq+0x420>)
 8001694:	689b      	ldr	r3, [r3, #8]
 8001696:	f3c3 6303 	ubfx	r3, r3, #24, #4
 800169a:	4a24      	ldr	r2, [pc, #144]	; (800172c <HAL_RCCEx_GetPeriphCLKFreq+0x428>)
 800169c:	f852 0023 	ldr.w	r0, [r2, r3, lsl #2]
 80016a0:	f000 bdd6 	b.w	8002250 <HAL_RCCEx_GetPeriphCLKFreq+0xf4c>
 80016a4:	a807      	add	r0, sp, #28
 80016a6:	f7ff fb03 	bl	8000cb0 <HAL_RCCEx_GetPLL1ClockFreq>
 80016aa:	9808      	ldr	r0, [sp, #32]
 80016ac:	f000 bdd0 	b.w	8002250 <HAL_RCCEx_GetPeriphCLKFreq+0xf4c>
 80016b0:	4b1c      	ldr	r3, [pc, #112]	; (8001724 <HAL_RCCEx_GetPeriphCLKFreq+0x420>)
 80016b2:	6818      	ldr	r0, [r3, #0]
 80016b4:	f410 5000 	ands.w	r0, r0, #8192	; 0x2000
 80016b8:	f000 85ca 	beq.w	8002250 <HAL_RCCEx_GetPeriphCLKFreq+0xf4c>
 80016bc:	481c      	ldr	r0, [pc, #112]	; (8001730 <HAL_RCCEx_GetPeriphCLKFreq+0x42c>)
 80016be:	f000 bdc7 	b.w	8002250 <HAL_RCCEx_GetPeriphCLKFreq+0xf4c>
 80016c2:	4b18      	ldr	r3, [pc, #96]	; (8001724 <HAL_RCCEx_GetPeriphCLKFreq+0x420>)
 80016c4:	f8d3 30f4 	ldr.w	r3, [r3, #244]	; 0xf4
 80016c8:	f3c3 2303 	ubfx	r3, r3, #8, #4
 80016cc:	e7e5      	b.n	800169a <HAL_RCCEx_GetPeriphCLKFreq+0x396>
 80016ce:	a807      	add	r0, sp, #28
 80016d0:	f7ff faee 	bl	8000cb0 <HAL_RCCEx_GetPLL1ClockFreq>
 80016d4:	9807      	ldr	r0, [sp, #28]
 80016d6:	f000 bdbb 	b.w	8002250 <HAL_RCCEx_GetPeriphCLKFreq+0xf4c>
 80016da:	4b12      	ldr	r3, [pc, #72]	; (8001724 <HAL_RCCEx_GetPeriphCLKFreq+0x420>)
 80016dc:	f8d3 30e0 	ldr.w	r3, [r3, #224]	; 0xe0
 80016e0:	f013 0303 	ands.w	r3, r3, #3
 80016e4:	d016      	beq.n	8001714 <HAL_RCCEx_GetPeriphCLKFreq+0x410>
 80016e6:	2b01      	cmp	r3, #1
 80016e8:	d018      	beq.n	800171c <HAL_RCCEx_GetPeriphCLKFreq+0x418>
 80016ea:	4a0e      	ldr	r2, [pc, #56]	; (8001724 <HAL_RCCEx_GetPeriphCLKFreq+0x420>)
 80016ec:	6812      	ldr	r2, [r2, #0]
 80016ee:	f412 6f80 	tst.w	r2, #1024	; 0x400
 80016f2:	d002      	beq.n	80016fa <HAL_RCCEx_GetPeriphCLKFreq+0x3f6>
 80016f4:	2b02      	cmp	r3, #2
 80016f6:	f000 85b7 	beq.w	8002268 <HAL_RCCEx_GetPeriphCLKFreq+0xf64>
 80016fa:	4a0a      	ldr	r2, [pc, #40]	; (8001724 <HAL_RCCEx_GetPeriphCLKFreq+0x420>)
 80016fc:	f8d2 20f0 	ldr.w	r2, [r2, #240]	; 0xf0
 8001700:	f012 0f02 	tst.w	r2, #2
 8001704:	f000 85b2 	beq.w	800226c <HAL_RCCEx_GetPeriphCLKFreq+0xf68>
 8001708:	2b03      	cmp	r3, #3
 800170a:	f000 85b1 	beq.w	8002270 <HAL_RCCEx_GetPeriphCLKFreq+0xf6c>
 800170e:	2000      	movs	r0, #0
 8001710:	f000 bd9e 	b.w	8002250 <HAL_RCCEx_GetPeriphCLKFreq+0xf4c>
 8001714:	f7ff faac 	bl	8000c70 <HAL_RCC_GetPCLK2Freq>
 8001718:	f000 bd9a 	b.w	8002250 <HAL_RCCEx_GetPeriphCLKFreq+0xf4c>
 800171c:	f7ff f9c6 	bl	8000aac <HAL_RCC_GetSysClockFreq>
 8001720:	f000 bd96 	b.w	8002250 <HAL_RCCEx_GetPeriphCLKFreq+0xf4c>
 8001724:	46020c00 	strmi	r0, [r2], -r0, lsl #24
 8001728:	00f42400 	rscseq	r2, r4, r0, lsl #8
 800172c:	08003da0 	stmdaeq	r0, {r5, r7, r8, sl, fp, ip, sp}
 8001730:	02dc6c00 	sbcseq	r6, ip, #0, 24
 8001734:	4bb4      	ldr	r3, [pc, #720]	; (8001a08 <HAL_RCCEx_GetPeriphCLKFreq+0x704>)
 8001736:	f8d3 30e0 	ldr.w	r3, [r3, #224]	; 0xe0
 800173a:	f013 030c 	ands.w	r3, r3, #12
 800173e:	d016      	beq.n	800176e <HAL_RCCEx_GetPeriphCLKFreq+0x46a>
 8001740:	2b04      	cmp	r3, #4
 8001742:	d018      	beq.n	8001776 <HAL_RCCEx_GetPeriphCLKFreq+0x472>
 8001744:	4ab0      	ldr	r2, [pc, #704]	; (8001a08 <HAL_RCCEx_GetPeriphCLKFreq+0x704>)
 8001746:	6812      	ldr	r2, [r2, #0]
 8001748:	f412 6f80 	tst.w	r2, #1024	; 0x400
 800174c:	d002      	beq.n	8001754 <HAL_RCCEx_GetPeriphCLKFreq+0x450>
 800174e:	2b08      	cmp	r3, #8
 8001750:	f000 8591 	beq.w	8002276 <HAL_RCCEx_GetPeriphCLKFreq+0xf72>
 8001754:	4aac      	ldr	r2, [pc, #688]	; (8001a08 <HAL_RCCEx_GetPeriphCLKFreq+0x704>)
 8001756:	f8d2 20f0 	ldr.w	r2, [r2, #240]	; 0xf0
 800175a:	f012 0f02 	tst.w	r2, #2
 800175e:	f000 858c 	beq.w	800227a <HAL_RCCEx_GetPeriphCLKFreq+0xf76>
 8001762:	2b0c      	cmp	r3, #12
 8001764:	f000 858b 	beq.w	800227e <HAL_RCCEx_GetPeriphCLKFreq+0xf7a>
 8001768:	2000      	movs	r0, #0
 800176a:	f000 bd71 	b.w	8002250 <HAL_RCCEx_GetPeriphCLKFreq+0xf4c>
 800176e:	f7ff fa6f 	bl	8000c50 <HAL_RCC_GetPCLK1Freq>
 8001772:	f000 bd6d 	b.w	8002250 <HAL_RCCEx_GetPeriphCLKFreq+0xf4c>
 8001776:	f7ff f999 	bl	8000aac <HAL_RCC_GetSysClockFreq>
 800177a:	f000 bd69 	b.w	8002250 <HAL_RCCEx_GetPeriphCLKFreq+0xf4c>
 800177e:	4ba2      	ldr	r3, [pc, #648]	; (8001a08 <HAL_RCCEx_GetPeriphCLKFreq+0x704>)
 8001780:	f8d3 30e0 	ldr.w	r3, [r3, #224]	; 0xe0
 8001784:	f013 0330 	ands.w	r3, r3, #48	; 0x30
 8001788:	d016      	beq.n	80017b8 <HAL_RCCEx_GetPeriphCLKFreq+0x4b4>
 800178a:	2b10      	cmp	r3, #16
 800178c:	d018      	beq.n	80017c0 <HAL_RCCEx_GetPeriphCLKFreq+0x4bc>
 800178e:	4a9e      	ldr	r2, [pc, #632]	; (8001a08 <HAL_RCCEx_GetPeriphCLKFreq+0x704>)
 8001790:	6812      	ldr	r2, [r2, #0]
 8001792:	f412 6f80 	tst.w	r2, #1024	; 0x400
 8001796:	d002      	beq.n	800179e <HAL_RCCEx_GetPeriphCLKFreq+0x49a>
 8001798:	2b20      	cmp	r3, #32
 800179a:	f000 8573 	beq.w	8002284 <HAL_RCCEx_GetPeriphCLKFreq+0xf80>
 800179e:	4a9a      	ldr	r2, [pc, #616]	; (8001a08 <HAL_RCCEx_GetPeriphCLKFreq+0x704>)
 80017a0:	f8d2 20f0 	ldr.w	r2, [r2, #240]	; 0xf0
 80017a4:	f012 0f02 	tst.w	r2, #2
 80017a8:	f000 856e 	beq.w	8002288 <HAL_RCCEx_GetPeriphCLKFreq+0xf84>
 80017ac:	2b30      	cmp	r3, #48	; 0x30
 80017ae:	f000 856d 	beq.w	800228c <HAL_RCCEx_GetPeriphCLKFreq+0xf88>
 80017b2:	2000      	movs	r0, #0
 80017b4:	f000 bd4c 	b.w	8002250 <HAL_RCCEx_GetPeriphCLKFreq+0xf4c>
 80017b8:	f7ff fa4a 	bl	8000c50 <HAL_RCC_GetPCLK1Freq>
 80017bc:	f000 bd48 	b.w	8002250 <HAL_RCCEx_GetPeriphCLKFreq+0xf4c>
 80017c0:	f7ff f974 	bl	8000aac <HAL_RCC_GetSysClockFreq>
 80017c4:	f000 bd44 	b.w	8002250 <HAL_RCCEx_GetPeriphCLKFreq+0xf4c>
 80017c8:	4b8f      	ldr	r3, [pc, #572]	; (8001a08 <HAL_RCCEx_GetPeriphCLKFreq+0x704>)
 80017ca:	f8d3 30e0 	ldr.w	r3, [r3, #224]	; 0xe0
 80017ce:	f013 03c0 	ands.w	r3, r3, #192	; 0xc0
 80017d2:	d016      	beq.n	8001802 <HAL_RCCEx_GetPeriphCLKFreq+0x4fe>
 80017d4:	2b40      	cmp	r3, #64	; 0x40
 80017d6:	d018      	beq.n	800180a <HAL_RCCEx_GetPeriphCLKFreq+0x506>
 80017d8:	4a8b      	ldr	r2, [pc, #556]	; (8001a08 <HAL_RCCEx_GetPeriphCLKFreq+0x704>)
 80017da:	6812      	ldr	r2, [r2, #0]
 80017dc:	f412 6f80 	tst.w	r2, #1024	; 0x400
 80017e0:	d002      	beq.n	80017e8 <HAL_RCCEx_GetPeriphCLKFreq+0x4e4>
 80017e2:	2b80      	cmp	r3, #128	; 0x80
 80017e4:	f000 8555 	beq.w	8002292 <HAL_RCCEx_GetPeriphCLKFreq+0xf8e>
 80017e8:	4a87      	ldr	r2, [pc, #540]	; (8001a08 <HAL_RCCEx_GetPeriphCLKFreq+0x704>)
 80017ea:	f8d2 20f0 	ldr.w	r2, [r2, #240]	; 0xf0
 80017ee:	f012 0f02 	tst.w	r2, #2
 80017f2:	f000 8550 	beq.w	8002296 <HAL_RCCEx_GetPeriphCLKFreq+0xf92>
 80017f6:	2bc0      	cmp	r3, #192	; 0xc0
 80017f8:	f000 854f 	beq.w	800229a <HAL_RCCEx_GetPeriphCLKFreq+0xf96>
 80017fc:	2000      	movs	r0, #0
 80017fe:	f000 bd27 	b.w	8002250 <HAL_RCCEx_GetPeriphCLKFreq+0xf4c>
 8001802:	f7ff fa25 	bl	8000c50 <HAL_RCC_GetPCLK1Freq>
 8001806:	f000 bd23 	b.w	8002250 <HAL_RCCEx_GetPeriphCLKFreq+0xf4c>
 800180a:	f7ff f94f 	bl	8000aac <HAL_RCC_GetSysClockFreq>
 800180e:	f000 bd1f 	b.w	8002250 <HAL_RCCEx_GetPeriphCLKFreq+0xf4c>
 8001812:	4b7d      	ldr	r3, [pc, #500]	; (8001a08 <HAL_RCCEx_GetPeriphCLKFreq+0x704>)
 8001814:	f8d3 30e0 	ldr.w	r3, [r3, #224]	; 0xe0
 8001818:	f413 7340 	ands.w	r3, r3, #768	; 0x300
 800181c:	d019      	beq.n	8001852 <HAL_RCCEx_GetPeriphCLKFreq+0x54e>
 800181e:	f5b3 7f80 	cmp.w	r3, #256	; 0x100
 8001822:	d01a      	beq.n	800185a <HAL_RCCEx_GetPeriphCLKFreq+0x556>
 8001824:	4a78      	ldr	r2, [pc, #480]	; (8001a08 <HAL_RCCEx_GetPeriphCLKFreq+0x704>)
 8001826:	6812      	ldr	r2, [r2, #0]
 8001828:	f412 6f80 	tst.w	r2, #1024	; 0x400
 800182c:	d003      	beq.n	8001836 <HAL_RCCEx_GetPeriphCLKFreq+0x532>
 800182e:	f5b3 7f00 	cmp.w	r3, #512	; 0x200
 8001832:	f000 8535 	beq.w	80022a0 <HAL_RCCEx_GetPeriphCLKFreq+0xf9c>
 8001836:	4a74      	ldr	r2, [pc, #464]	; (8001a08 <HAL_RCCEx_GetPeriphCLKFreq+0x704>)
 8001838:	f8d2 20f0 	ldr.w	r2, [r2, #240]	; 0xf0
 800183c:	f012 0f02 	tst.w	r2, #2
 8001840:	f000 8530 	beq.w	80022a4 <HAL_RCCEx_GetPeriphCLKFreq+0xfa0>
 8001844:	f5b3 7f40 	cmp.w	r3, #768	; 0x300
 8001848:	f000 852e 	beq.w	80022a8 <HAL_RCCEx_GetPeriphCLKFreq+0xfa4>
 800184c:	2000      	movs	r0, #0
 800184e:	f000 bcff 	b.w	8002250 <HAL_RCCEx_GetPeriphCLKFreq+0xf4c>
 8001852:	f7ff f9fd 	bl	8000c50 <HAL_RCC_GetPCLK1Freq>
 8001856:	f000 bcfb 	b.w	8002250 <HAL_RCCEx_GetPeriphCLKFreq+0xf4c>
 800185a:	f7ff f927 	bl	8000aac <HAL_RCC_GetSysClockFreq>
 800185e:	f000 bcf7 	b.w	8002250 <HAL_RCCEx_GetPeriphCLKFreq+0xf4c>
 8001862:	4b69      	ldr	r3, [pc, #420]	; (8001a08 <HAL_RCCEx_GetPeriphCLKFreq+0x704>)
 8001864:	f8d3 30e4 	ldr.w	r3, [r3, #228]	; 0xe4
 8001868:	f413 3340 	ands.w	r3, r3, #196608	; 0x30000
 800186c:	d019      	beq.n	80018a2 <HAL_RCCEx_GetPeriphCLKFreq+0x59e>
 800186e:	f5b3 3f80 	cmp.w	r3, #65536	; 0x10000
 8001872:	d01a      	beq.n	80018aa <HAL_RCCEx_GetPeriphCLKFreq+0x5a6>
 8001874:	4a64      	ldr	r2, [pc, #400]	; (8001a08 <HAL_RCCEx_GetPeriphCLKFreq+0x704>)
 8001876:	6812      	ldr	r2, [r2, #0]
 8001878:	f412 6f80 	tst.w	r2, #1024	; 0x400
 800187c:	d003      	beq.n	8001886 <HAL_RCCEx_GetPeriphCLKFreq+0x582>
 800187e:	f5b3 3f00 	cmp.w	r3, #131072	; 0x20000
 8001882:	f000 8514 	beq.w	80022ae <HAL_RCCEx_GetPeriphCLKFreq+0xfaa>
 8001886:	4a60      	ldr	r2, [pc, #384]	; (8001a08 <HAL_RCCEx_GetPeriphCLKFreq+0x704>)
 8001888:	f8d2 20f0 	ldr.w	r2, [r2, #240]	; 0xf0
 800188c:	f012 0f02 	tst.w	r2, #2
 8001890:	f000 850f 	beq.w	80022b2 <HAL_RCCEx_GetPeriphCLKFreq+0xfae>
 8001894:	f5b3 3f40 	cmp.w	r3, #196608	; 0x30000
 8001898:	f000 850d 	beq.w	80022b6 <HAL_RCCEx_GetPeriphCLKFreq+0xfb2>
 800189c:	2000      	movs	r0, #0
 800189e:	f000 bcd7 	b.w	8002250 <HAL_RCCEx_GetPeriphCLKFreq+0xf4c>
 80018a2:	f7ff f9d5 	bl	8000c50 <HAL_RCC_GetPCLK1Freq>
 80018a6:	f000 bcd3 	b.w	8002250 <HAL_RCCEx_GetPeriphCLKFreq+0xf4c>
 80018aa:	f7ff f8ff 	bl	8000aac <HAL_RCC_GetSysClockFreq>
 80018ae:	f000 bccf 	b.w	8002250 <HAL_RCCEx_GetPeriphCLKFreq+0xf4c>
 80018b2:	4b55      	ldr	r3, [pc, #340]	; (8001a08 <HAL_RCCEx_GetPeriphCLKFreq+0x704>)
 80018b4:	f8d3 30e8 	ldr.w	r3, [r3, #232]	; 0xe8
 80018b8:	f013 0307 	ands.w	r3, r3, #7
 80018bc:	d01d      	beq.n	80018fa <HAL_RCCEx_GetPeriphCLKFreq+0x5f6>
 80018be:	2b01      	cmp	r3, #1
 80018c0:	d01f      	beq.n	8001902 <HAL_RCCEx_GetPeriphCLKFreq+0x5fe>
 80018c2:	4a51      	ldr	r2, [pc, #324]	; (8001a08 <HAL_RCCEx_GetPeriphCLKFreq+0x704>)
 80018c4:	6812      	ldr	r2, [r2, #0]
 80018c6:	f412 6f80 	tst.w	r2, #1024	; 0x400
 80018ca:	d002      	beq.n	80018d2 <HAL_RCCEx_GetPeriphCLKFreq+0x5ce>
 80018cc:	2b02      	cmp	r3, #2
 80018ce:	f000 84f5 	beq.w	80022bc <HAL_RCCEx_GetPeriphCLKFreq+0xfb8>
 80018d2:	4a4d      	ldr	r2, [pc, #308]	; (8001a08 <HAL_RCCEx_GetPeriphCLKFreq+0x704>)
 80018d4:	f8d2 20f0 	ldr.w	r2, [r2, #240]	; 0xf0
 80018d8:	f012 0f02 	tst.w	r2, #2
 80018dc:	d002      	beq.n	80018e4 <HAL_RCCEx_GetPeriphCLKFreq+0x5e0>
 80018de:	2b03      	cmp	r3, #3
 80018e0:	f000 84ee 	beq.w	80022c0 <HAL_RCCEx_GetPeriphCLKFreq+0xfbc>
 80018e4:	4a48      	ldr	r2, [pc, #288]	; (8001a08 <HAL_RCCEx_GetPeriphCLKFreq+0x704>)
 80018e6:	6810      	ldr	r0, [r2, #0]
 80018e8:	f010 0020 	ands.w	r0, r0, #32
 80018ec:	f000 84b0 	beq.w	8002250 <HAL_RCCEx_GetPeriphCLKFreq+0xf4c>
 80018f0:	2b04      	cmp	r3, #4
 80018f2:	d00a      	beq.n	800190a <HAL_RCCEx_GetPeriphCLKFreq+0x606>
 80018f4:	2000      	movs	r0, #0
 80018f6:	f000 bcab 	b.w	8002250 <HAL_RCCEx_GetPeriphCLKFreq+0xf4c>
 80018fa:	f7ff f9c9 	bl	8000c90 <HAL_RCC_GetPCLK3Freq>
 80018fe:	f000 bca7 	b.w	8002250 <HAL_RCCEx_GetPeriphCLKFreq+0xf4c>
 8001902:	f7ff f8d3 	bl	8000aac <HAL_RCC_GetSysClockFreq>
 8001906:	f000 bca3 	b.w	8002250 <HAL_RCCEx_GetPeriphCLKFreq+0xf4c>
 800190a:	6893      	ldr	r3, [r2, #8]
 800190c:	f413 0f00 	tst.w	r3, #8388608	; 0x800000
 8001910:	d007      	beq.n	8001922 <HAL_RCCEx_GetPeriphCLKFreq+0x61e>
 8001912:	6893      	ldr	r3, [r2, #8]
 8001914:	f3c3 6303 	ubfx	r3, r3, #24, #4
 8001918:	4a3c      	ldr	r2, [pc, #240]	; (8001a0c <HAL_RCCEx_GetPeriphCLKFreq+0x708>)
 800191a:	f852 0023 	ldr.w	r0, [r2, r3, lsl #2]
 800191e:	f000 bc97 	b.w	8002250 <HAL_RCCEx_GetPeriphCLKFreq+0xf4c>
 8001922:	4b39      	ldr	r3, [pc, #228]	; (8001a08 <HAL_RCCEx_GetPeriphCLKFreq+0x704>)
 8001924:	f8d3 30f4 	ldr.w	r3, [r3, #244]	; 0xf4
 8001928:	f3c3 2303 	ubfx	r3, r3, #8, #4
 800192c:	e7f4      	b.n	8001918 <HAL_RCCEx_GetPeriphCLKFreq+0x614>
 800192e:	4b36      	ldr	r3, [pc, #216]	; (8001a08 <HAL_RCCEx_GetPeriphCLKFreq+0x704>)
 8001930:	f8d3 30e8 	ldr.w	r3, [r3, #232]	; 0xe8
 8001934:	f403 43e0 	and.w	r3, r3, #28672	; 0x7000
 8001938:	f5b3 5f80 	cmp.w	r3, #4096	; 0x1000
 800193c:	d01c      	beq.n	8001978 <HAL_RCCEx_GetPeriphCLKFreq+0x674>
 800193e:	f5b3 5f00 	cmp.w	r3, #8192	; 0x2000
 8001942:	d01d      	beq.n	8001980 <HAL_RCCEx_GetPeriphCLKFreq+0x67c>
 8001944:	b313      	cbz	r3, 800198c <HAL_RCCEx_GetPeriphCLKFreq+0x688>
 8001946:	f5b3 4fa0 	cmp.w	r3, #20480	; 0x5000
 800194a:	d023      	beq.n	8001994 <HAL_RCCEx_GetPeriphCLKFreq+0x690>
 800194c:	4a2e      	ldr	r2, [pc, #184]	; (8001a08 <HAL_RCCEx_GetPeriphCLKFreq+0x704>)
 800194e:	6812      	ldr	r2, [r2, #0]
 8001950:	f412 3f00 	tst.w	r2, #131072	; 0x20000
 8001954:	d003      	beq.n	800195e <HAL_RCCEx_GetPeriphCLKFreq+0x65a>
 8001956:	f5b3 5f40 	cmp.w	r3, #12288	; 0x3000
 800195a:	f000 84b4 	beq.w	80022c6 <HAL_RCCEx_GetPeriphCLKFreq+0xfc2>
 800195e:	4a2a      	ldr	r2, [pc, #168]	; (8001a08 <HAL_RCCEx_GetPeriphCLKFreq+0x704>)
 8001960:	6812      	ldr	r2, [r2, #0]
 8001962:	f412 6f80 	tst.w	r2, #1024	; 0x400
 8001966:	f000 84b0 	beq.w	80022ca <HAL_RCCEx_GetPeriphCLKFreq+0xfc6>
 800196a:	f5b3 4f80 	cmp.w	r3, #16384	; 0x4000
 800196e:	f000 84ae 	beq.w	80022ce <HAL_RCCEx_GetPeriphCLKFreq+0xfca>
 8001972:	2000      	movs	r0, #0
 8001974:	f000 bc6c 	b.w	8002250 <HAL_RCCEx_GetPeriphCLKFreq+0xf4c>
 8001978:	f7ff f898 	bl	8000aac <HAL_RCC_GetSysClockFreq>
 800197c:	f000 bc68 	b.w	8002250 <HAL_RCCEx_GetPeriphCLKFreq+0xf4c>
 8001980:	a804      	add	r0, sp, #16
 8001982:	f7ff faa3 	bl	8000ecc <HAL_RCCEx_GetPLL2ClockFreq>
 8001986:	9806      	ldr	r0, [sp, #24]
 8001988:	f000 bc62 	b.w	8002250 <HAL_RCCEx_GetPeriphCLKFreq+0xf4c>
 800198c:	f7ff f94c 	bl	8000c28 <HAL_RCC_GetHCLKFreq>
 8001990:	f000 bc5e 	b.w	8002250 <HAL_RCCEx_GetPeriphCLKFreq+0xf4c>
 8001994:	4b1c      	ldr	r3, [pc, #112]	; (8001a08 <HAL_RCCEx_GetPeriphCLKFreq+0x704>)
 8001996:	6818      	ldr	r0, [r3, #0]
 8001998:	f010 0020 	ands.w	r0, r0, #32
 800199c:	f000 8458 	beq.w	8002250 <HAL_RCCEx_GetPeriphCLKFreq+0xf4c>
 80019a0:	689b      	ldr	r3, [r3, #8]
 80019a2:	f413 0f00 	tst.w	r3, #8388608	; 0x800000
 80019a6:	d008      	beq.n	80019ba <HAL_RCCEx_GetPeriphCLKFreq+0x6b6>
 80019a8:	4b17      	ldr	r3, [pc, #92]	; (8001a08 <HAL_RCCEx_GetPeriphCLKFreq+0x704>)
 80019aa:	689b      	ldr	r3, [r3, #8]
 80019ac:	f3c3 6303 	ubfx	r3, r3, #24, #4
 80019b0:	4a16      	ldr	r2, [pc, #88]	; (8001a0c <HAL_RCCEx_GetPeriphCLKFreq+0x708>)
 80019b2:	f852 0023 	ldr.w	r0, [r2, r3, lsl #2]
 80019b6:	f000 bc4b 	b.w	8002250 <HAL_RCCEx_GetPeriphCLKFreq+0xf4c>
 80019ba:	4b13      	ldr	r3, [pc, #76]	; (8001a08 <HAL_RCCEx_GetPeriphCLKFreq+0x704>)
 80019bc:	f8d3 30f4 	ldr.w	r3, [r3, #244]	; 0xf4
 80019c0:	f3c3 2303 	ubfx	r3, r3, #8, #4
 80019c4:	e7f4      	b.n	80019b0 <HAL_RCCEx_GetPeriphCLKFreq+0x6ac>
 80019c6:	4b10      	ldr	r3, [pc, #64]	; (8001a08 <HAL_RCCEx_GetPeriphCLKFreq+0x704>)
 80019c8:	f8d3 30e4 	ldr.w	r3, [r3, #228]	; 0xe4
 80019cc:	f003 0307 	and.w	r3, r3, #7
 80019d0:	2b04      	cmp	r3, #4
 80019d2:	f200 847e 	bhi.w	80022d2 <HAL_RCCEx_GetPeriphCLKFreq+0xfce>
 80019d6:	e8df f003 	tbb	[pc, r3]
 80019da:	030d0713 	movweq	r0, #55059	; 0xd713
 80019de:	f64b001b 			; <UNDEFINED> instruction: 0xf64b001b
 80019e2:	3080      	adds	r0, #128	; 0x80
 80019e4:	f000 bc34 	b.w	8002250 <HAL_RCCEx_GetPeriphCLKFreq+0xf4c>
 80019e8:	a807      	add	r0, sp, #28
 80019ea:	f7ff f961 	bl	8000cb0 <HAL_RCCEx_GetPLL1ClockFreq>
 80019ee:	9807      	ldr	r0, [sp, #28]
 80019f0:	f000 bc2e 	b.w	8002250 <HAL_RCCEx_GetPeriphCLKFreq+0xf4c>
 80019f4:	a801      	add	r0, sp, #4
 80019f6:	f7ff fb77 	bl	80010e8 <HAL_RCCEx_GetPLL3ClockFreq>
 80019fa:	9802      	ldr	r0, [sp, #8]
 80019fc:	f000 bc28 	b.w	8002250 <HAL_RCCEx_GetPeriphCLKFreq+0xf4c>
 8001a00:	f7ff f912 	bl	8000c28 <HAL_RCC_GetHCLKFreq>
 8001a04:	f000 bc24 	b.w	8002250 <HAL_RCCEx_GetPeriphCLKFreq+0xf4c>
 8001a08:	46020c00 	strmi	r0, [r2], -r0, lsl #24
 8001a0c:	08003da0 	stmdaeq	r0, {r5, r7, r8, sl, fp, ip, sp}
 8001a10:	4ba5      	ldr	r3, [pc, #660]	; (8001ca8 <HAL_RCCEx_GetPeriphCLKFreq+0x9a4>)
 8001a12:	6818      	ldr	r0, [r3, #0]
 8001a14:	f010 0020 	ands.w	r0, r0, #32
 8001a18:	f000 841a 	beq.w	8002250 <HAL_RCCEx_GetPeriphCLKFreq+0xf4c>
 8001a1c:	689b      	ldr	r3, [r3, #8]
 8001a1e:	f413 0f00 	tst.w	r3, #8388608	; 0x800000
 8001a22:	d008      	beq.n	8001a36 <HAL_RCCEx_GetPeriphCLKFreq+0x732>
 8001a24:	4ba0      	ldr	r3, [pc, #640]	; (8001ca8 <HAL_RCCEx_GetPeriphCLKFreq+0x9a4>)
 8001a26:	689b      	ldr	r3, [r3, #8]
 8001a28:	f3c3 6303 	ubfx	r3, r3, #24, #4
 8001a2c:	4a9f      	ldr	r2, [pc, #636]	; (8001cac <HAL_RCCEx_GetPeriphCLKFreq+0x9a8>)
 8001a2e:	f852 0023 	ldr.w	r0, [r2, r3, lsl #2]
 8001a32:	f000 bc0d 	b.w	8002250 <HAL_RCCEx_GetPeriphCLKFreq+0xf4c>
 8001a36:	4b9c      	ldr	r3, [pc, #624]	; (8001ca8 <HAL_RCCEx_GetPeriphCLKFreq+0x9a4>)
 8001a38:	f8d3 30f4 	ldr.w	r3, [r3, #244]	; 0xf4
 8001a3c:	f3c3 2303 	ubfx	r3, r3, #8, #4
 8001a40:	e7f4      	b.n	8001a2c <HAL_RCCEx_GetPeriphCLKFreq+0x728>
 8001a42:	4b99      	ldr	r3, [pc, #612]	; (8001ca8 <HAL_RCCEx_GetPeriphCLKFreq+0x9a4>)
 8001a44:	f8d3 30e8 	ldr.w	r3, [r3, #232]	; 0xe8
 8001a48:	f403 23e0 	and.w	r3, r3, #458752	; 0x70000
 8001a4c:	f5b3 3f00 	cmp.w	r3, #131072	; 0x20000
 8001a50:	d026      	beq.n	8001aa0 <HAL_RCCEx_GetPeriphCLKFreq+0x79c>
 8001a52:	d918      	bls.n	8001a86 <HAL_RCCEx_GetPeriphCLKFreq+0x782>
 8001a54:	f5b3 3f40 	cmp.w	r3, #196608	; 0x30000
 8001a58:	f000 843d 	beq.w	80022d6 <HAL_RCCEx_GetPeriphCLKFreq+0xfd2>
 8001a5c:	f5b3 2f80 	cmp.w	r3, #262144	; 0x40000
 8001a60:	d11c      	bne.n	8001a9c <HAL_RCCEx_GetPeriphCLKFreq+0x798>
 8001a62:	4b91      	ldr	r3, [pc, #580]	; (8001ca8 <HAL_RCCEx_GetPeriphCLKFreq+0x9a4>)
 8001a64:	6818      	ldr	r0, [r3, #0]
 8001a66:	f010 0020 	ands.w	r0, r0, #32
 8001a6a:	f000 83f1 	beq.w	8002250 <HAL_RCCEx_GetPeriphCLKFreq+0xf4c>
 8001a6e:	689b      	ldr	r3, [r3, #8]
 8001a70:	f413 0f00 	tst.w	r3, #8388608	; 0x800000
 8001a74:	d01c      	beq.n	8001ab0 <HAL_RCCEx_GetPeriphCLKFreq+0x7ac>
 8001a76:	4b8c      	ldr	r3, [pc, #560]	; (8001ca8 <HAL_RCCEx_GetPeriphCLKFreq+0x9a4>)
 8001a78:	689b      	ldr	r3, [r3, #8]
 8001a7a:	f3c3 6303 	ubfx	r3, r3, #24, #4
 8001a7e:	4a8b      	ldr	r2, [pc, #556]	; (8001cac <HAL_RCCEx_GetPeriphCLKFreq+0x9a8>)
 8001a80:	f852 0023 	ldr.w	r0, [r2, r3, lsl #2]
 8001a84:	e3e4      	b.n	8002250 <HAL_RCCEx_GetPeriphCLKFreq+0xf4c>
 8001a86:	b183      	cbz	r3, 8001aaa <HAL_RCCEx_GetPeriphCLKFreq+0x7a6>
 8001a88:	f5b3 3f80 	cmp.w	r3, #65536	; 0x10000
 8001a8c:	d104      	bne.n	8001a98 <HAL_RCCEx_GetPeriphCLKFreq+0x794>
 8001a8e:	a807      	add	r0, sp, #28
 8001a90:	f7ff f90e 	bl	8000cb0 <HAL_RCCEx_GetPLL1ClockFreq>
 8001a94:	9807      	ldr	r0, [sp, #28]
 8001a96:	e3db      	b.n	8002250 <HAL_RCCEx_GetPeriphCLKFreq+0xf4c>
 8001a98:	2000      	movs	r0, #0
 8001a9a:	e3d9      	b.n	8002250 <HAL_RCCEx_GetPeriphCLKFreq+0xf4c>
 8001a9c:	2000      	movs	r0, #0
 8001a9e:	e3d7      	b.n	8002250 <HAL_RCCEx_GetPeriphCLKFreq+0xf4c>
 8001aa0:	a801      	add	r0, sp, #4
 8001aa2:	f7ff fb21 	bl	80010e8 <HAL_RCCEx_GetPLL3ClockFreq>
 8001aa6:	9802      	ldr	r0, [sp, #8]
 8001aa8:	e3d2      	b.n	8002250 <HAL_RCCEx_GetPeriphCLKFreq+0xf4c>
 8001aaa:	f7ff f8bd 	bl	8000c28 <HAL_RCC_GetHCLKFreq>
 8001aae:	e3cf      	b.n	8002250 <HAL_RCCEx_GetPeriphCLKFreq+0xf4c>
 8001ab0:	4b7d      	ldr	r3, [pc, #500]	; (8001ca8 <HAL_RCCEx_GetPeriphCLKFreq+0x9a4>)
 8001ab2:	f8d3 30f4 	ldr.w	r3, [r3, #244]	; 0xf4
 8001ab6:	f3c3 2303 	ubfx	r3, r3, #8, #4
 8001aba:	e7e0      	b.n	8001a7e <HAL_RCCEx_GetPeriphCLKFreq+0x77a>
 8001abc:	4b7a      	ldr	r3, [pc, #488]	; (8001ca8 <HAL_RCCEx_GetPeriphCLKFreq+0x9a4>)
 8001abe:	f8d3 30e0 	ldr.w	r3, [r3, #224]	; 0xe0
 8001ac2:	f413 6340 	ands.w	r3, r3, #3072	; 0xc00
 8001ac6:	d016      	beq.n	8001af6 <HAL_RCCEx_GetPeriphCLKFreq+0x7f2>
 8001ac8:	f5b3 6f80 	cmp.w	r3, #1024	; 0x400
 8001acc:	d016      	beq.n	8001afc <HAL_RCCEx_GetPeriphCLKFreq+0x7f8>
 8001ace:	4a76      	ldr	r2, [pc, #472]	; (8001ca8 <HAL_RCCEx_GetPeriphCLKFreq+0x9a4>)
 8001ad0:	6812      	ldr	r2, [r2, #0]
 8001ad2:	f412 6f80 	tst.w	r2, #1024	; 0x400
 8001ad6:	d003      	beq.n	8001ae0 <HAL_RCCEx_GetPeriphCLKFreq+0x7dc>
 8001ad8:	f5b3 6f00 	cmp.w	r3, #2048	; 0x800
 8001adc:	f000 83fe 	beq.w	80022dc <HAL_RCCEx_GetPeriphCLKFreq+0xfd8>
 8001ae0:	4a71      	ldr	r2, [pc, #452]	; (8001ca8 <HAL_RCCEx_GetPeriphCLKFreq+0x9a4>)
 8001ae2:	6810      	ldr	r0, [r2, #0]
 8001ae4:	f010 0020 	ands.w	r0, r0, #32
 8001ae8:	f000 83b2 	beq.w	8002250 <HAL_RCCEx_GetPeriphCLKFreq+0xf4c>
 8001aec:	f5b3 6f40 	cmp.w	r3, #3072	; 0xc00
 8001af0:	d007      	beq.n	8001b02 <HAL_RCCEx_GetPeriphCLKFreq+0x7fe>
 8001af2:	2000      	movs	r0, #0
 8001af4:	e3ac      	b.n	8002250 <HAL_RCCEx_GetPeriphCLKFreq+0xf4c>
 8001af6:	f7ff f8ab 	bl	8000c50 <HAL_RCC_GetPCLK1Freq>
 8001afa:	e3a9      	b.n	8002250 <HAL_RCCEx_GetPeriphCLKFreq+0xf4c>
 8001afc:	f7fe ffd6 	bl	8000aac <HAL_RCC_GetSysClockFreq>
 8001b00:	e3a6      	b.n	8002250 <HAL_RCCEx_GetPeriphCLKFreq+0xf4c>
 8001b02:	6893      	ldr	r3, [r2, #8]
 8001b04:	f413 0f00 	tst.w	r3, #8388608	; 0x800000
 8001b08:	d006      	beq.n	8001b18 <HAL_RCCEx_GetPeriphCLKFreq+0x814>
 8001b0a:	6893      	ldr	r3, [r2, #8]
 8001b0c:	f3c3 6303 	ubfx	r3, r3, #24, #4
 8001b10:	4a66      	ldr	r2, [pc, #408]	; (8001cac <HAL_RCCEx_GetPeriphCLKFreq+0x9a8>)
 8001b12:	f852 0023 	ldr.w	r0, [r2, r3, lsl #2]
 8001b16:	e39b      	b.n	8002250 <HAL_RCCEx_GetPeriphCLKFreq+0xf4c>
 8001b18:	4b63      	ldr	r3, [pc, #396]	; (8001ca8 <HAL_RCCEx_GetPeriphCLKFreq+0x9a4>)
 8001b1a:	f8d3 30f4 	ldr.w	r3, [r3, #244]	; 0xf4
 8001b1e:	f3c3 2303 	ubfx	r3, r3, #8, #4
 8001b22:	e7f5      	b.n	8001b10 <HAL_RCCEx_GetPeriphCLKFreq+0x80c>
 8001b24:	4b60      	ldr	r3, [pc, #384]	; (8001ca8 <HAL_RCCEx_GetPeriphCLKFreq+0x9a4>)
 8001b26:	f8d3 30e0 	ldr.w	r3, [r3, #224]	; 0xe0
 8001b2a:	f413 5340 	ands.w	r3, r3, #12288	; 0x3000
 8001b2e:	d016      	beq.n	8001b5e <HAL_RCCEx_GetPeriphCLKFreq+0x85a>
 8001b30:	f5b3 5f80 	cmp.w	r3, #4096	; 0x1000
 8001b34:	d016      	beq.n	8001b64 <HAL_RCCEx_GetPeriphCLKFreq+0x860>
 8001b36:	4a5c      	ldr	r2, [pc, #368]	; (8001ca8 <HAL_RCCEx_GetPeriphCLKFreq+0x9a4>)
 8001b38:	6812      	ldr	r2, [r2, #0]
 8001b3a:	f412 6f80 	tst.w	r2, #1024	; 0x400
 8001b3e:	d003      	beq.n	8001b48 <HAL_RCCEx_GetPeriphCLKFreq+0x844>
 8001b40:	f5b3 5f00 	cmp.w	r3, #8192	; 0x2000
 8001b44:	f000 83cc 	beq.w	80022e0 <HAL_RCCEx_GetPeriphCLKFreq+0xfdc>
 8001b48:	4a57      	ldr	r2, [pc, #348]	; (8001ca8 <HAL_RCCEx_GetPeriphCLKFreq+0x9a4>)
 8001b4a:	6810      	ldr	r0, [r2, #0]
 8001b4c:	f010 0020 	ands.w	r0, r0, #32
 8001b50:	f000 837e 	beq.w	8002250 <HAL_RCCEx_GetPeriphCLKFreq+0xf4c>
 8001b54:	f5b3 5f40 	cmp.w	r3, #12288	; 0x3000
 8001b58:	d007      	beq.n	8001b6a <HAL_RCCEx_GetPeriphCLKFreq+0x866>
 8001b5a:	2000      	movs	r0, #0
 8001b5c:	e378      	b.n	8002250 <HAL_RCCEx_GetPeriphCLKFreq+0xf4c>
 8001b5e:	f7ff f877 	bl	8000c50 <HAL_RCC_GetPCLK1Freq>
 8001b62:	e375      	b.n	8002250 <HAL_RCCEx_GetPeriphCLKFreq+0xf4c>
 8001b64:	f7fe ffa2 	bl	8000aac <HAL_RCC_GetSysClockFreq>
 8001b68:	e372      	b.n	8002250 <HAL_RCCEx_GetPeriphCLKFreq+0xf4c>
 8001b6a:	6893      	ldr	r3, [r2, #8]
 8001b6c:	f413 0f00 	tst.w	r3, #8388608	; 0x800000
 8001b70:	d006      	beq.n	8001b80 <HAL_RCCEx_GetPeriphCLKFreq+0x87c>
 8001b72:	6893      	ldr	r3, [r2, #8]
 8001b74:	f3c3 6303 	ubfx	r3, r3, #24, #4
 8001b78:	4a4c      	ldr	r2, [pc, #304]	; (8001cac <HAL_RCCEx_GetPeriphCLKFreq+0x9a8>)
 8001b7a:	f852 0023 	ldr.w	r0, [r2, r3, lsl #2]
 8001b7e:	e367      	b.n	8002250 <HAL_RCCEx_GetPeriphCLKFreq+0xf4c>
 8001b80:	4b49      	ldr	r3, [pc, #292]	; (8001ca8 <HAL_RCCEx_GetPeriphCLKFreq+0x9a4>)
 8001b82:	f8d3 30f4 	ldr.w	r3, [r3, #244]	; 0xf4
 8001b86:	f3c3 2303 	ubfx	r3, r3, #8, #4
 8001b8a:	e7f5      	b.n	8001b78 <HAL_RCCEx_GetPeriphCLKFreq+0x874>
 8001b8c:	4b46      	ldr	r3, [pc, #280]	; (8001ca8 <HAL_RCCEx_GetPeriphCLKFreq+0x9a4>)
 8001b8e:	f8d3 30e8 	ldr.w	r3, [r3, #232]	; 0xe8
 8001b92:	f003 03c0 	and.w	r3, r3, #192	; 0xc0
 8001b96:	2b80      	cmp	r3, #128	; 0x80
 8001b98:	d021      	beq.n	8001bde <HAL_RCCEx_GetPeriphCLKFreq+0x8da>
 8001b9a:	d807      	bhi.n	8001bac <HAL_RCCEx_GetPeriphCLKFreq+0x8a8>
 8001b9c:	b1e3      	cbz	r3, 8001bd8 <HAL_RCCEx_GetPeriphCLKFreq+0x8d4>
 8001b9e:	2b40      	cmp	r3, #64	; 0x40
 8001ba0:	d102      	bne.n	8001ba8 <HAL_RCCEx_GetPeriphCLKFreq+0x8a4>
 8001ba2:	f7fe ff83 	bl	8000aac <HAL_RCC_GetSysClockFreq>
 8001ba6:	e353      	b.n	8002250 <HAL_RCCEx_GetPeriphCLKFreq+0xf4c>
 8001ba8:	2000      	movs	r0, #0
 8001baa:	e351      	b.n	8002250 <HAL_RCCEx_GetPeriphCLKFreq+0xf4c>
 8001bac:	2bc0      	cmp	r3, #192	; 0xc0
 8001bae:	d111      	bne.n	8001bd4 <HAL_RCCEx_GetPeriphCLKFreq+0x8d0>
 8001bb0:	4b3d      	ldr	r3, [pc, #244]	; (8001ca8 <HAL_RCCEx_GetPeriphCLKFreq+0x9a4>)
 8001bb2:	6818      	ldr	r0, [r3, #0]
 8001bb4:	f010 0020 	ands.w	r0, r0, #32
 8001bb8:	f000 834a 	beq.w	8002250 <HAL_RCCEx_GetPeriphCLKFreq+0xf4c>
 8001bbc:	689b      	ldr	r3, [r3, #8]
 8001bbe:	f413 0f00 	tst.w	r3, #8388608	; 0x800000
 8001bc2:	d014      	beq.n	8001bee <HAL_RCCEx_GetPeriphCLKFreq+0x8ea>
 8001bc4:	4b38      	ldr	r3, [pc, #224]	; (8001ca8 <HAL_RCCEx_GetPeriphCLKFreq+0x9a4>)
 8001bc6:	689b      	ldr	r3, [r3, #8]
 8001bc8:	f3c3 6303 	ubfx	r3, r3, #24, #4
 8001bcc:	4a37      	ldr	r2, [pc, #220]	; (8001cac <HAL_RCCEx_GetPeriphCLKFreq+0x9a8>)
 8001bce:	f852 0023 	ldr.w	r0, [r2, r3, lsl #2]
 8001bd2:	e33d      	b.n	8002250 <HAL_RCCEx_GetPeriphCLKFreq+0xf4c>
 8001bd4:	2000      	movs	r0, #0
 8001bd6:	e33b      	b.n	8002250 <HAL_RCCEx_GetPeriphCLKFreq+0xf4c>
 8001bd8:	f7ff f85a 	bl	8000c90 <HAL_RCC_GetPCLK3Freq>
 8001bdc:	e338      	b.n	8002250 <HAL_RCCEx_GetPeriphCLKFreq+0xf4c>
 8001bde:	4b32      	ldr	r3, [pc, #200]	; (8001ca8 <HAL_RCCEx_GetPeriphCLKFreq+0x9a4>)
 8001be0:	6818      	ldr	r0, [r3, #0]
 8001be2:	f410 6080 	ands.w	r0, r0, #1024	; 0x400
 8001be6:	f000 8333 	beq.w	8002250 <HAL_RCCEx_GetPeriphCLKFreq+0xf4c>
 8001bea:	4831      	ldr	r0, [pc, #196]	; (8001cb0 <HAL_RCCEx_GetPeriphCLKFreq+0x9ac>)
 8001bec:	e330      	b.n	8002250 <HAL_RCCEx_GetPeriphCLKFreq+0xf4c>
 8001bee:	4b2e      	ldr	r3, [pc, #184]	; (8001ca8 <HAL_RCCEx_GetPeriphCLKFreq+0x9a4>)
 8001bf0:	f8d3 30f4 	ldr.w	r3, [r3, #244]	; 0xf4
 8001bf4:	f3c3 2303 	ubfx	r3, r3, #8, #4
 8001bf8:	e7e8      	b.n	8001bcc <HAL_RCCEx_GetPeriphCLKFreq+0x8c8>
 8001bfa:	4b2b      	ldr	r3, [pc, #172]	; (8001ca8 <HAL_RCCEx_GetPeriphCLKFreq+0x9a4>)
 8001bfc:	f8d3 30e0 	ldr.w	r3, [r3, #224]	; 0xe0
 8001c00:	f413 4340 	ands.w	r3, r3, #49152	; 0xc000
 8001c04:	d016      	beq.n	8001c34 <HAL_RCCEx_GetPeriphCLKFreq+0x930>
 8001c06:	f5b3 4f80 	cmp.w	r3, #16384	; 0x4000
 8001c0a:	d016      	beq.n	8001c3a <HAL_RCCEx_GetPeriphCLKFreq+0x936>
 8001c0c:	4a26      	ldr	r2, [pc, #152]	; (8001ca8 <HAL_RCCEx_GetPeriphCLKFreq+0x9a4>)
 8001c0e:	6812      	ldr	r2, [r2, #0]
 8001c10:	f412 6f80 	tst.w	r2, #1024	; 0x400
 8001c14:	d003      	beq.n	8001c1e <HAL_RCCEx_GetPeriphCLKFreq+0x91a>
 8001c16:	f5b3 4f00 	cmp.w	r3, #32768	; 0x8000
 8001c1a:	f000 8363 	beq.w	80022e4 <HAL_RCCEx_GetPeriphCLKFreq+0xfe0>
 8001c1e:	4a22      	ldr	r2, [pc, #136]	; (8001ca8 <HAL_RCCEx_GetPeriphCLKFreq+0x9a4>)
 8001c20:	6810      	ldr	r0, [r2, #0]
 8001c22:	f010 0020 	ands.w	r0, r0, #32
 8001c26:	f000 8313 	beq.w	8002250 <HAL_RCCEx_GetPeriphCLKFreq+0xf4c>
 8001c2a:	f5b3 4f40 	cmp.w	r3, #49152	; 0xc000
 8001c2e:	d007      	beq.n	8001c40 <HAL_RCCEx_GetPeriphCLKFreq+0x93c>
 8001c30:	2000      	movs	r0, #0
 8001c32:	e30d      	b.n	8002250 <HAL_RCCEx_GetPeriphCLKFreq+0xf4c>
 8001c34:	f7ff f80c 	bl	8000c50 <HAL_RCC_GetPCLK1Freq>
 8001c38:	e30a      	b.n	8002250 <HAL_RCCEx_GetPeriphCLKFreq+0xf4c>
 8001c3a:	f7fe ff37 	bl	8000aac <HAL_RCC_GetSysClockFreq>
 8001c3e:	e307      	b.n	8002250 <HAL_RCCEx_GetPeriphCLKFreq+0xf4c>
 8001c40:	6893      	ldr	r3, [r2, #8]
 8001c42:	f413 0f00 	tst.w	r3, #8388608	; 0x800000
 8001c46:	d006      	beq.n	8001c56 <HAL_RCCEx_GetPeriphCLKFreq+0x952>
 8001c48:	6893      	ldr	r3, [r2, #8]
 8001c4a:	f3c3 6303 	ubfx	r3, r3, #24, #4
 8001c4e:	4a17      	ldr	r2, [pc, #92]	; (8001cac <HAL_RCCEx_GetPeriphCLKFreq+0x9a8>)
 8001c50:	f852 0023 	ldr.w	r0, [r2, r3, lsl #2]
 8001c54:	e2fc      	b.n	8002250 <HAL_RCCEx_GetPeriphCLKFreq+0xf4c>
 8001c56:	4b14      	ldr	r3, [pc, #80]	; (8001ca8 <HAL_RCCEx_GetPeriphCLKFreq+0x9a4>)
 8001c58:	f8d3 30f4 	ldr.w	r3, [r3, #244]	; 0xf4
 8001c5c:	f3c3 2303 	ubfx	r3, r3, #8, #4
 8001c60:	e7f5      	b.n	8001c4e <HAL_RCCEx_GetPeriphCLKFreq+0x94a>
 8001c62:	4b11      	ldr	r3, [pc, #68]	; (8001ca8 <HAL_RCCEx_GetPeriphCLKFreq+0x9a4>)
 8001c64:	f8d3 30e4 	ldr.w	r3, [r3, #228]	; 0xe4
 8001c68:	f013 7340 	ands.w	r3, r3, #50331648	; 0x3000000
 8001c6c:	d016      	beq.n	8001c9c <HAL_RCCEx_GetPeriphCLKFreq+0x998>
 8001c6e:	f1b3 7f80 	cmp.w	r3, #16777216	; 0x1000000
 8001c72:	d016      	beq.n	8001ca2 <HAL_RCCEx_GetPeriphCLKFreq+0x99e>
 8001c74:	4a0c      	ldr	r2, [pc, #48]	; (8001ca8 <HAL_RCCEx_GetPeriphCLKFreq+0x9a4>)
 8001c76:	6812      	ldr	r2, [r2, #0]
 8001c78:	f412 6f80 	tst.w	r2, #1024	; 0x400
 8001c7c:	d003      	beq.n	8001c86 <HAL_RCCEx_GetPeriphCLKFreq+0x982>
 8001c7e:	f1b3 7f00 	cmp.w	r3, #33554432	; 0x2000000
 8001c82:	f000 8331 	beq.w	80022e8 <HAL_RCCEx_GetPeriphCLKFreq+0xfe4>
 8001c86:	4a08      	ldr	r2, [pc, #32]	; (8001ca8 <HAL_RCCEx_GetPeriphCLKFreq+0x9a4>)
 8001c88:	6810      	ldr	r0, [r2, #0]
 8001c8a:	f010 0020 	ands.w	r0, r0, #32
 8001c8e:	f000 82df 	beq.w	8002250 <HAL_RCCEx_GetPeriphCLKFreq+0xf4c>
 8001c92:	f1b3 7f40 	cmp.w	r3, #50331648	; 0x3000000
 8001c96:	d00d      	beq.n	8001cb4 <HAL_RCCEx_GetPeriphCLKFreq+0x9b0>
 8001c98:	2000      	movs	r0, #0
 8001c9a:	e2d9      	b.n	8002250 <HAL_RCCEx_GetPeriphCLKFreq+0xf4c>
 8001c9c:	f7fe ffd8 	bl	8000c50 <HAL_RCC_GetPCLK1Freq>
 8001ca0:	e2d6      	b.n	8002250 <HAL_RCCEx_GetPeriphCLKFreq+0xf4c>
 8001ca2:	f7fe ff03 	bl	8000aac <HAL_RCC_GetSysClockFreq>
 8001ca6:	e2d3      	b.n	8002250 <HAL_RCCEx_GetPeriphCLKFreq+0xf4c>
 8001ca8:	46020c00 	strmi	r0, [r2], -r0, lsl #24
 8001cac:	08003da0 	stmdaeq	r0, {r5, r7, r8, sl, fp, ip, sp}
 8001cb0:	00f42400 	rscseq	r2, r4, r0, lsl #8
 8001cb4:	6893      	ldr	r3, [r2, #8]
 8001cb6:	f413 0f00 	tst.w	r3, #8388608	; 0x800000
 8001cba:	d006      	beq.n	8001cca <HAL_RCCEx_GetPeriphCLKFreq+0x9c6>
 8001cbc:	6893      	ldr	r3, [r2, #8]
 8001cbe:	f3c3 6303 	ubfx	r3, r3, #24, #4
 8001cc2:	4aa9      	ldr	r2, [pc, #676]	; (8001f68 <HAL_RCCEx_GetPeriphCLKFreq+0xc64>)
 8001cc4:	f852 0023 	ldr.w	r0, [r2, r3, lsl #2]
 8001cc8:	e2c2      	b.n	8002250 <HAL_RCCEx_GetPeriphCLKFreq+0xf4c>
 8001cca:	4ba8      	ldr	r3, [pc, #672]	; (8001f6c <HAL_RCCEx_GetPeriphCLKFreq+0xc68>)
 8001ccc:	f8d3 30f4 	ldr.w	r3, [r3, #244]	; 0xf4
 8001cd0:	f3c3 2303 	ubfx	r3, r3, #8, #4
 8001cd4:	e7f5      	b.n	8001cc2 <HAL_RCCEx_GetPeriphCLKFreq+0x9be>
 8001cd6:	4ba5      	ldr	r3, [pc, #660]	; (8001f6c <HAL_RCCEx_GetPeriphCLKFreq+0xc68>)
 8001cd8:	f8d3 30e4 	ldr.w	r3, [r3, #228]	; 0xe4
 8001cdc:	f013 6340 	ands.w	r3, r3, #201326592	; 0xc000000
 8001ce0:	d016      	beq.n	8001d10 <HAL_RCCEx_GetPeriphCLKFreq+0xa0c>
 8001ce2:	f1b3 6f80 	cmp.w	r3, #67108864	; 0x4000000
 8001ce6:	d016      	beq.n	8001d16 <HAL_RCCEx_GetPeriphCLKFreq+0xa12>
 8001ce8:	4aa0      	ldr	r2, [pc, #640]	; (8001f6c <HAL_RCCEx_GetPeriphCLKFreq+0xc68>)
 8001cea:	6812      	ldr	r2, [r2, #0]
 8001cec:	f412 6f80 	tst.w	r2, #1024	; 0x400
 8001cf0:	d003      	beq.n	8001cfa <HAL_RCCEx_GetPeriphCLKFreq+0x9f6>
 8001cf2:	f1b3 6f00 	cmp.w	r3, #134217728	; 0x8000000
 8001cf6:	f000 82f9 	beq.w	80022ec <HAL_RCCEx_GetPeriphCLKFreq+0xfe8>
 8001cfa:	4a9c      	ldr	r2, [pc, #624]	; (8001f6c <HAL_RCCEx_GetPeriphCLKFreq+0xc68>)
 8001cfc:	6810      	ldr	r0, [r2, #0]
 8001cfe:	f010 0020 	ands.w	r0, r0, #32
 8001d02:	f000 82a5 	beq.w	8002250 <HAL_RCCEx_GetPeriphCLKFreq+0xf4c>
 8001d06:	f1b3 6f40 	cmp.w	r3, #201326592	; 0xc000000
 8001d0a:	d007      	beq.n	8001d1c <HAL_RCCEx_GetPeriphCLKFreq+0xa18>
 8001d0c:	2000      	movs	r0, #0
 8001d0e:	e29f      	b.n	8002250 <HAL_RCCEx_GetPeriphCLKFreq+0xf4c>
 8001d10:	f7fe ff9e 	bl	8000c50 <HAL_RCC_GetPCLK1Freq>
 8001d14:	e29c      	b.n	8002250 <HAL_RCCEx_GetPeriphCLKFreq+0xf4c>
 8001d16:	f7fe fec9 	bl	8000aac <HAL_RCC_GetSysClockFreq>
 8001d1a:	e299      	b.n	8002250 <HAL_RCCEx_GetPeriphCLKFreq+0xf4c>
 8001d1c:	6893      	ldr	r3, [r2, #8]
 8001d1e:	f413 0f00 	tst.w	r3, #8388608	; 0x800000
 8001d22:	d006      	beq.n	8001d32 <HAL_RCCEx_GetPeriphCLKFreq+0xa2e>
 8001d24:	6893      	ldr	r3, [r2, #8]
 8001d26:	f3c3 6303 	ubfx	r3, r3, #24, #4
 8001d2a:	4a8f      	ldr	r2, [pc, #572]	; (8001f68 <HAL_RCCEx_GetPeriphCLKFreq+0xc64>)
 8001d2c:	f852 0023 	ldr.w	r0, [r2, r3, lsl #2]
 8001d30:	e28e      	b.n	8002250 <HAL_RCCEx_GetPeriphCLKFreq+0xf4c>
 8001d32:	4b8e      	ldr	r3, [pc, #568]	; (8001f6c <HAL_RCCEx_GetPeriphCLKFreq+0xc68>)
 8001d34:	f8d3 30f4 	ldr.w	r3, [r3, #244]	; 0xf4
 8001d38:	f3c3 2303 	ubfx	r3, r3, #8, #4
 8001d3c:	e7f5      	b.n	8001d2a <HAL_RCCEx_GetPeriphCLKFreq+0xa26>
 8001d3e:	4b8b      	ldr	r3, [pc, #556]	; (8001f6c <HAL_RCCEx_GetPeriphCLKFreq+0xc68>)
 8001d40:	f8d3 30e8 	ldr.w	r3, [r3, #232]	; 0xe8
 8001d44:	f413 7340 	ands.w	r3, r3, #768	; 0x300
 8001d48:	d117      	bne.n	8001d7a <HAL_RCCEx_GetPeriphCLKFreq+0xa76>
 8001d4a:	4b88      	ldr	r3, [pc, #544]	; (8001f6c <HAL_RCCEx_GetPeriphCLKFreq+0xc68>)
 8001d4c:	6818      	ldr	r0, [r3, #0]
 8001d4e:	f010 0020 	ands.w	r0, r0, #32
 8001d52:	f000 827d 	beq.w	8002250 <HAL_RCCEx_GetPeriphCLKFreq+0xf4c>
 8001d56:	689b      	ldr	r3, [r3, #8]
 8001d58:	f413 0f00 	tst.w	r3, #8388608	; 0x800000
 8001d5c:	d007      	beq.n	8001d6e <HAL_RCCEx_GetPeriphCLKFreq+0xa6a>
 8001d5e:	4b83      	ldr	r3, [pc, #524]	; (8001f6c <HAL_RCCEx_GetPeriphCLKFreq+0xc68>)
 8001d60:	689b      	ldr	r3, [r3, #8]
 8001d62:	f3c3 6303 	ubfx	r3, r3, #24, #4
 8001d66:	4a80      	ldr	r2, [pc, #512]	; (8001f68 <HAL_RCCEx_GetPeriphCLKFreq+0xc64>)
 8001d68:	f852 0023 	ldr.w	r0, [r2, r3, lsl #2]
 8001d6c:	e270      	b.n	8002250 <HAL_RCCEx_GetPeriphCLKFreq+0xf4c>
 8001d6e:	4b7f      	ldr	r3, [pc, #508]	; (8001f6c <HAL_RCCEx_GetPeriphCLKFreq+0xc68>)
 8001d70:	f8d3 30f4 	ldr.w	r3, [r3, #244]	; 0xf4
 8001d74:	f3c3 2303 	ubfx	r3, r3, #8, #4
 8001d78:	e7f5      	b.n	8001d66 <HAL_RCCEx_GetPeriphCLKFreq+0xa62>
 8001d7a:	4a7c      	ldr	r2, [pc, #496]	; (8001f6c <HAL_RCCEx_GetPeriphCLKFreq+0xc68>)
 8001d7c:	f8d2 20f0 	ldr.w	r2, [r2, #240]	; 0xf0
 8001d80:	f012 6f00 	tst.w	r2, #134217728	; 0x8000000
 8001d84:	d002      	beq.n	8001d8c <HAL_RCCEx_GetPeriphCLKFreq+0xa88>
 8001d86:	f5b3 7f80 	cmp.w	r3, #256	; 0x100
 8001d8a:	d015      	beq.n	8001db8 <HAL_RCCEx_GetPeriphCLKFreq+0xab4>
 8001d8c:	4a77      	ldr	r2, [pc, #476]	; (8001f6c <HAL_RCCEx_GetPeriphCLKFreq+0xc68>)
 8001d8e:	6812      	ldr	r2, [r2, #0]
 8001d90:	f412 6f80 	tst.w	r2, #1024	; 0x400
 8001d94:	d003      	beq.n	8001d9e <HAL_RCCEx_GetPeriphCLKFreq+0xa9a>
 8001d96:	f5b3 7f00 	cmp.w	r3, #512	; 0x200
 8001d9a:	f000 82ac 	beq.w	80022f6 <HAL_RCCEx_GetPeriphCLKFreq+0xff2>
 8001d9e:	4a73      	ldr	r2, [pc, #460]	; (8001f6c <HAL_RCCEx_GetPeriphCLKFreq+0xc68>)
 8001da0:	f8d2 20f0 	ldr.w	r2, [r2, #240]	; 0xf0
 8001da4:	f012 0f02 	tst.w	r2, #2
 8001da8:	f000 82a7 	beq.w	80022fa <HAL_RCCEx_GetPeriphCLKFreq+0xff6>
 8001dac:	f5b3 7f40 	cmp.w	r3, #768	; 0x300
 8001db0:	f000 82a5 	beq.w	80022fe <HAL_RCCEx_GetPeriphCLKFreq+0xffa>
 8001db4:	2000      	movs	r0, #0
 8001db6:	e24b      	b.n	8002250 <HAL_RCCEx_GetPeriphCLKFreq+0xf4c>
 8001db8:	4b6c      	ldr	r3, [pc, #432]	; (8001f6c <HAL_RCCEx_GetPeriphCLKFreq+0xc68>)
 8001dba:	f8d3 30f0 	ldr.w	r3, [r3, #240]	; 0xf0
 8001dbe:	f013 5f80 	tst.w	r3, #268435456	; 0x10000000
 8001dc2:	f000 8295 	beq.w	80022f0 <HAL_RCCEx_GetPeriphCLKFreq+0xfec>
 8001dc6:	20fa      	movs	r0, #250	; 0xfa
 8001dc8:	e242      	b.n	8002250 <HAL_RCCEx_GetPeriphCLKFreq+0xf4c>
 8001dca:	4b68      	ldr	r3, [pc, #416]	; (8001f6c <HAL_RCCEx_GetPeriphCLKFreq+0xc68>)
 8001dcc:	f8d3 30e8 	ldr.w	r3, [r3, #232]	; 0xe8
 8001dd0:	f413 6340 	ands.w	r3, r3, #3072	; 0xc00
 8001dd4:	d117      	bne.n	8001e06 <HAL_RCCEx_GetPeriphCLKFreq+0xb02>
 8001dd6:	4b65      	ldr	r3, [pc, #404]	; (8001f6c <HAL_RCCEx_GetPeriphCLKFreq+0xc68>)
 8001dd8:	6818      	ldr	r0, [r3, #0]
 8001dda:	f010 0020 	ands.w	r0, r0, #32
 8001dde:	f000 8237 	beq.w	8002250 <HAL_RCCEx_GetPeriphCLKFreq+0xf4c>
 8001de2:	689b      	ldr	r3, [r3, #8]
 8001de4:	f413 0f00 	tst.w	r3, #8388608	; 0x800000
 8001de8:	d007      	beq.n	8001dfa <HAL_RCCEx_GetPeriphCLKFreq+0xaf6>
 8001dea:	4b60      	ldr	r3, [pc, #384]	; (8001f6c <HAL_RCCEx_GetPeriphCLKFreq+0xc68>)
 8001dec:	689b      	ldr	r3, [r3, #8]
 8001dee:	f3c3 6303 	ubfx	r3, r3, #24, #4
 8001df2:	4a5d      	ldr	r2, [pc, #372]	; (8001f68 <HAL_RCCEx_GetPeriphCLKFreq+0xc64>)
 8001df4:	f852 0023 	ldr.w	r0, [r2, r3, lsl #2]
 8001df8:	e22a      	b.n	8002250 <HAL_RCCEx_GetPeriphCLKFreq+0xf4c>
 8001dfa:	4b5c      	ldr	r3, [pc, #368]	; (8001f6c <HAL_RCCEx_GetPeriphCLKFreq+0xc68>)
 8001dfc:	f8d3 30f4 	ldr.w	r3, [r3, #244]	; 0xf4
 8001e00:	f3c3 2303 	ubfx	r3, r3, #8, #4
 8001e04:	e7f5      	b.n	8001df2 <HAL_RCCEx_GetPeriphCLKFreq+0xaee>
 8001e06:	4a59      	ldr	r2, [pc, #356]	; (8001f6c <HAL_RCCEx_GetPeriphCLKFreq+0xc68>)
 8001e08:	f8d2 20f0 	ldr.w	r2, [r2, #240]	; 0xf0
 8001e0c:	f012 6f00 	tst.w	r2, #134217728	; 0x8000000
 8001e10:	d002      	beq.n	8001e18 <HAL_RCCEx_GetPeriphCLKFreq+0xb14>
 8001e12:	f5b3 6f80 	cmp.w	r3, #1024	; 0x400
 8001e16:	d015      	beq.n	8001e44 <HAL_RCCEx_GetPeriphCLKFreq+0xb40>
 8001e18:	4a54      	ldr	r2, [pc, #336]	; (8001f6c <HAL_RCCEx_GetPeriphCLKFreq+0xc68>)
 8001e1a:	6812      	ldr	r2, [r2, #0]
 8001e1c:	f412 6f80 	tst.w	r2, #1024	; 0x400
 8001e20:	d003      	beq.n	8001e2a <HAL_RCCEx_GetPeriphCLKFreq+0xb26>
 8001e22:	f5b3 6f00 	cmp.w	r3, #2048	; 0x800
 8001e26:	f000 8270 	beq.w	800230a <HAL_RCCEx_GetPeriphCLKFreq+0x1006>
 8001e2a:	4a50      	ldr	r2, [pc, #320]	; (8001f6c <HAL_RCCEx_GetPeriphCLKFreq+0xc68>)
 8001e2c:	f8d2 20f0 	ldr.w	r2, [r2, #240]	; 0xf0
 8001e30:	f012 0f02 	tst.w	r2, #2
 8001e34:	f000 826b 	beq.w	800230e <HAL_RCCEx_GetPeriphCLKFreq+0x100a>
 8001e38:	f5b3 6f40 	cmp.w	r3, #3072	; 0xc00
 8001e3c:	f000 8269 	beq.w	8002312 <HAL_RCCEx_GetPeriphCLKFreq+0x100e>
 8001e40:	2000      	movs	r0, #0
 8001e42:	e205      	b.n	8002250 <HAL_RCCEx_GetPeriphCLKFreq+0xf4c>
 8001e44:	4b49      	ldr	r3, [pc, #292]	; (8001f6c <HAL_RCCEx_GetPeriphCLKFreq+0xc68>)
 8001e46:	f8d3 30f0 	ldr.w	r3, [r3, #240]	; 0xf0
 8001e4a:	f013 5f80 	tst.w	r3, #268435456	; 0x10000000
 8001e4e:	f000 8259 	beq.w	8002304 <HAL_RCCEx_GetPeriphCLKFreq+0x1000>
 8001e52:	20fa      	movs	r0, #250	; 0xfa
 8001e54:	e1fc      	b.n	8002250 <HAL_RCCEx_GetPeriphCLKFreq+0xf4c>
 8001e56:	4b45      	ldr	r3, [pc, #276]	; (8001f6c <HAL_RCCEx_GetPeriphCLKFreq+0xc68>)
 8001e58:	f8d3 30e0 	ldr.w	r3, [r3, #224]	; 0xe0
 8001e5c:	f413 2340 	ands.w	r3, r3, #786432	; 0xc0000
 8001e60:	d01e      	beq.n	8001ea0 <HAL_RCCEx_GetPeriphCLKFreq+0xb9c>
 8001e62:	4a42      	ldr	r2, [pc, #264]	; (8001f6c <HAL_RCCEx_GetPeriphCLKFreq+0xc68>)
 8001e64:	f8d2 20f0 	ldr.w	r2, [r2, #240]	; 0xf0
 8001e68:	f012 6f00 	tst.w	r2, #134217728	; 0x8000000
 8001e6c:	d002      	beq.n	8001e74 <HAL_RCCEx_GetPeriphCLKFreq+0xb70>
 8001e6e:	f5b3 2f80 	cmp.w	r3, #262144	; 0x40000
 8001e72:	d018      	beq.n	8001ea6 <HAL_RCCEx_GetPeriphCLKFreq+0xba2>
 8001e74:	4a3d      	ldr	r2, [pc, #244]	; (8001f6c <HAL_RCCEx_GetPeriphCLKFreq+0xc68>)
 8001e76:	6812      	ldr	r2, [r2, #0]
 8001e78:	f412 6f80 	tst.w	r2, #1024	; 0x400
 8001e7c:	d003      	beq.n	8001e86 <HAL_RCCEx_GetPeriphCLKFreq+0xb82>
 8001e7e:	f5b3 2f00 	cmp.w	r3, #524288	; 0x80000
 8001e82:	f000 824c 	beq.w	800231e <HAL_RCCEx_GetPeriphCLKFreq+0x101a>
 8001e86:	4a39      	ldr	r2, [pc, #228]	; (8001f6c <HAL_RCCEx_GetPeriphCLKFreq+0xc68>)
 8001e88:	f8d2 20f0 	ldr.w	r2, [r2, #240]	; 0xf0
 8001e8c:	f012 0f02 	tst.w	r2, #2
 8001e90:	f000 8247 	beq.w	8002322 <HAL_RCCEx_GetPeriphCLKFreq+0x101e>
 8001e94:	f5b3 2f40 	cmp.w	r3, #786432	; 0xc0000
 8001e98:	f000 8245 	beq.w	8002326 <HAL_RCCEx_GetPeriphCLKFreq+0x1022>
 8001e9c:	2000      	movs	r0, #0
 8001e9e:	e1d7      	b.n	8002250 <HAL_RCCEx_GetPeriphCLKFreq+0xf4c>
 8001ea0:	f7fe fed6 	bl	8000c50 <HAL_RCC_GetPCLK1Freq>
 8001ea4:	e1d4      	b.n	8002250 <HAL_RCCEx_GetPeriphCLKFreq+0xf4c>
 8001ea6:	4b31      	ldr	r3, [pc, #196]	; (8001f6c <HAL_RCCEx_GetPeriphCLKFreq+0xc68>)
 8001ea8:	f8d3 30f0 	ldr.w	r3, [r3, #240]	; 0xf0
 8001eac:	f013 5f80 	tst.w	r3, #268435456	; 0x10000000
 8001eb0:	f000 8232 	beq.w	8002318 <HAL_RCCEx_GetPeriphCLKFreq+0x1014>
 8001eb4:	20fa      	movs	r0, #250	; 0xfa
 8001eb6:	e1cb      	b.n	8002250 <HAL_RCCEx_GetPeriphCLKFreq+0xf4c>
 8001eb8:	4a2c      	ldr	r2, [pc, #176]	; (8001f6c <HAL_RCCEx_GetPeriphCLKFreq+0xc68>)
 8001eba:	f8d2 30e0 	ldr.w	r3, [r2, #224]	; 0xe0
 8001ebe:	f003 7340 	and.w	r3, r3, #50331648	; 0x3000000
 8001ec2:	6812      	ldr	r2, [r2, #0]
 8001ec4:	f412 3f00 	tst.w	r2, #131072	; 0x20000
 8001ec8:	d002      	beq.n	8001ed0 <HAL_RCCEx_GetPeriphCLKFreq+0xbcc>
 8001eca:	2b00      	cmp	r3, #0
 8001ecc:	f000 822e 	beq.w	800232c <HAL_RCCEx_GetPeriphCLKFreq+0x1028>
 8001ed0:	f1b3 7f80 	cmp.w	r3, #16777216	; 0x1000000
 8001ed4:	d004      	beq.n	8001ee0 <HAL_RCCEx_GetPeriphCLKFreq+0xbdc>
 8001ed6:	f1b3 7f00 	cmp.w	r3, #33554432	; 0x2000000
 8001eda:	d006      	beq.n	8001eea <HAL_RCCEx_GetPeriphCLKFreq+0xbe6>
 8001edc:	2000      	movs	r0, #0
 8001ede:	e1b7      	b.n	8002250 <HAL_RCCEx_GetPeriphCLKFreq+0xf4c>
 8001ee0:	a807      	add	r0, sp, #28
 8001ee2:	f7fe fee5 	bl	8000cb0 <HAL_RCCEx_GetPLL1ClockFreq>
 8001ee6:	9808      	ldr	r0, [sp, #32]
 8001ee8:	e1b2      	b.n	8002250 <HAL_RCCEx_GetPeriphCLKFreq+0xf4c>
 8001eea:	a804      	add	r0, sp, #16
 8001eec:	f7fe ffee 	bl	8000ecc <HAL_RCCEx_GetPLL2ClockFreq>
 8001ef0:	9804      	ldr	r0, [sp, #16]
 8001ef2:	e1ad      	b.n	8002250 <HAL_RCCEx_GetPeriphCLKFreq+0xf4c>
 8001ef4:	4b1d      	ldr	r3, [pc, #116]	; (8001f6c <HAL_RCCEx_GetPeriphCLKFreq+0xc68>)
 8001ef6:	f8d3 30e0 	ldr.w	r3, [r3, #224]	; 0xe0
 8001efa:	f403 1340 	and.w	r3, r3, #3145728	; 0x300000
 8001efe:	f5b3 1f00 	cmp.w	r3, #2097152	; 0x200000
 8001f02:	d023      	beq.n	8001f4c <HAL_RCCEx_GetPeriphCLKFreq+0xc48>
 8001f04:	d808      	bhi.n	8001f18 <HAL_RCCEx_GetPeriphCLKFreq+0xc14>
 8001f06:	b1f3      	cbz	r3, 8001f46 <HAL_RCCEx_GetPeriphCLKFreq+0xc42>
 8001f08:	f5b3 1f80 	cmp.w	r3, #1048576	; 0x100000
 8001f0c:	d102      	bne.n	8001f14 <HAL_RCCEx_GetPeriphCLKFreq+0xc10>
 8001f0e:	f7fe fdcd 	bl	8000aac <HAL_RCC_GetSysClockFreq>
 8001f12:	e19d      	b.n	8002250 <HAL_RCCEx_GetPeriphCLKFreq+0xf4c>
 8001f14:	2000      	movs	r0, #0
 8001f16:	e19b      	b.n	8002250 <HAL_RCCEx_GetPeriphCLKFreq+0xf4c>
 8001f18:	f5b3 1f40 	cmp.w	r3, #3145728	; 0x300000
 8001f1c:	d111      	bne.n	8001f42 <HAL_RCCEx_GetPeriphCLKFreq+0xc3e>
 8001f1e:	4b13      	ldr	r3, [pc, #76]	; (8001f6c <HAL_RCCEx_GetPeriphCLKFreq+0xc68>)
 8001f20:	6818      	ldr	r0, [r3, #0]
 8001f22:	f010 0020 	ands.w	r0, r0, #32
 8001f26:	f000 8193 	beq.w	8002250 <HAL_RCCEx_GetPeriphCLKFreq+0xf4c>
 8001f2a:	689b      	ldr	r3, [r3, #8]
 8001f2c:	f413 0f00 	tst.w	r3, #8388608	; 0x800000
 8001f30:	d014      	beq.n	8001f5c <HAL_RCCEx_GetPeriphCLKFreq+0xc58>
 8001f32:	4b0e      	ldr	r3, [pc, #56]	; (8001f6c <HAL_RCCEx_GetPeriphCLKFreq+0xc68>)
 8001f34:	689b      	ldr	r3, [r3, #8]
 8001f36:	f3c3 6303 	ubfx	r3, r3, #24, #4
 8001f3a:	4a0b      	ldr	r2, [pc, #44]	; (8001f68 <HAL_RCCEx_GetPeriphCLKFreq+0xc64>)
 8001f3c:	f852 0023 	ldr.w	r0, [r2, r3, lsl #2]
 8001f40:	e186      	b.n	8002250 <HAL_RCCEx_GetPeriphCLKFreq+0xf4c>
 8001f42:	2000      	movs	r0, #0
 8001f44:	e184      	b.n	8002250 <HAL_RCCEx_GetPeriphCLKFreq+0xf4c>
 8001f46:	f7fe fe93 	bl	8000c70 <HAL_RCC_GetPCLK2Freq>
 8001f4a:	e181      	b.n	8002250 <HAL_RCCEx_GetPeriphCLKFreq+0xf4c>
 8001f4c:	4b07      	ldr	r3, [pc, #28]	; (8001f6c <HAL_RCCEx_GetPeriphCLKFreq+0xc68>)
 8001f4e:	6818      	ldr	r0, [r3, #0]
 8001f50:	f410 6080 	ands.w	r0, r0, #1024	; 0x400
 8001f54:	f000 817c 	beq.w	8002250 <HAL_RCCEx_GetPeriphCLKFreq+0xf4c>
 8001f58:	4805      	ldr	r0, [pc, #20]	; (8001f70 <HAL_RCCEx_GetPeriphCLKFreq+0xc6c>)
 8001f5a:	e179      	b.n	8002250 <HAL_RCCEx_GetPeriphCLKFreq+0xf4c>
 8001f5c:	4b03      	ldr	r3, [pc, #12]	; (8001f6c <HAL_RCCEx_GetPeriphCLKFreq+0xc68>)
 8001f5e:	f8d3 30f4 	ldr.w	r3, [r3, #244]	; 0xf4
 8001f62:	f3c3 2303 	ubfx	r3, r3, #8, #4
 8001f66:	e7e8      	b.n	8001f3a <HAL_RCCEx_GetPeriphCLKFreq+0xc36>
 8001f68:	08003da0 	stmdaeq	r0, {r5, r7, r8, sl, fp, ip, sp}
 8001f6c:	46020c00 	strmi	r0, [r2], -r0, lsl #24
 8001f70:	00f42400 	rscseq	r2, r4, r0, lsl #8
 8001f74:	4b99      	ldr	r3, [pc, #612]	; (80021dc <HAL_RCCEx_GetPeriphCLKFreq+0xed8>)
 8001f76:	f8d3 30e0 	ldr.w	r3, [r3, #224]	; 0xe0
 8001f7a:	f403 3340 	and.w	r3, r3, #196608	; 0x30000
 8001f7e:	f5b3 3f00 	cmp.w	r3, #131072	; 0x20000
 8001f82:	d023      	beq.n	8001fcc <HAL_RCCEx_GetPeriphCLKFreq+0xcc8>
 8001f84:	d808      	bhi.n	8001f98 <HAL_RCCEx_GetPeriphCLKFreq+0xc94>
 8001f86:	b1f3      	cbz	r3, 8001fc6 <HAL_RCCEx_GetPeriphCLKFreq+0xcc2>
 8001f88:	f5b3 3f80 	cmp.w	r3, #65536	; 0x10000
 8001f8c:	d102      	bne.n	8001f94 <HAL_RCCEx_GetPeriphCLKFreq+0xc90>
 8001f8e:	f7fe fd8d 	bl	8000aac <HAL_RCC_GetSysClockFreq>
 8001f92:	e15d      	b.n	8002250 <HAL_RCCEx_GetPeriphCLKFreq+0xf4c>
 8001f94:	2000      	movs	r0, #0
 8001f96:	e15b      	b.n	8002250 <HAL_RCCEx_GetPeriphCLKFreq+0xf4c>
 8001f98:	f5b3 3f40 	cmp.w	r3, #196608	; 0x30000
 8001f9c:	d111      	bne.n	8001fc2 <HAL_RCCEx_GetPeriphCLKFreq+0xcbe>
 8001f9e:	4b8f      	ldr	r3, [pc, #572]	; (80021dc <HAL_RCCEx_GetPeriphCLKFreq+0xed8>)
 8001fa0:	6818      	ldr	r0, [r3, #0]
 8001fa2:	f010 0020 	ands.w	r0, r0, #32
 8001fa6:	f000 8153 	beq.w	8002250 <HAL_RCCEx_GetPeriphCLKFreq+0xf4c>
 8001faa:	689b      	ldr	r3, [r3, #8]
 8001fac:	f413 0f00 	tst.w	r3, #8388608	; 0x800000
 8001fb0:	d014      	beq.n	8001fdc <HAL_RCCEx_GetPeriphCLKFreq+0xcd8>
 8001fb2:	4b8a      	ldr	r3, [pc, #552]	; (80021dc <HAL_RCCEx_GetPeriphCLKFreq+0xed8>)
 8001fb4:	689b      	ldr	r3, [r3, #8]
 8001fb6:	f3c3 6303 	ubfx	r3, r3, #24, #4
 8001fba:	4a89      	ldr	r2, [pc, #548]	; (80021e0 <HAL_RCCEx_GetPeriphCLKFreq+0xedc>)
 8001fbc:	f852 0023 	ldr.w	r0, [r2, r3, lsl #2]
 8001fc0:	e146      	b.n	8002250 <HAL_RCCEx_GetPeriphCLKFreq+0xf4c>
 8001fc2:	2000      	movs	r0, #0
 8001fc4:	e144      	b.n	8002250 <HAL_RCCEx_GetPeriphCLKFreq+0xf4c>
 8001fc6:	f7fe fe43 	bl	8000c50 <HAL_RCC_GetPCLK1Freq>
 8001fca:	e141      	b.n	8002250 <HAL_RCCEx_GetPeriphCLKFreq+0xf4c>
 8001fcc:	4b83      	ldr	r3, [pc, #524]	; (80021dc <HAL_RCCEx_GetPeriphCLKFreq+0xed8>)
 8001fce:	6818      	ldr	r0, [r3, #0]
 8001fd0:	f410 6080 	ands.w	r0, r0, #1024	; 0x400
 8001fd4:	f000 813c 	beq.w	8002250 <HAL_RCCEx_GetPeriphCLKFreq+0xf4c>
 8001fd8:	4882      	ldr	r0, [pc, #520]	; (80021e4 <HAL_RCCEx_GetPeriphCLKFreq+0xee0>)
 8001fda:	e139      	b.n	8002250 <HAL_RCCEx_GetPeriphCLKFreq+0xf4c>
 8001fdc:	4b7f      	ldr	r3, [pc, #508]	; (80021dc <HAL_RCCEx_GetPeriphCLKFreq+0xed8>)
 8001fde:	f8d3 30f4 	ldr.w	r3, [r3, #244]	; 0xf4
 8001fe2:	f3c3 2303 	ubfx	r3, r3, #8, #4
 8001fe6:	e7e8      	b.n	8001fba <HAL_RCCEx_GetPeriphCLKFreq+0xcb6>
 8001fe8:	4b7c      	ldr	r3, [pc, #496]	; (80021dc <HAL_RCCEx_GetPeriphCLKFreq+0xed8>)
 8001fea:	f8d3 30e8 	ldr.w	r3, [r3, #232]	; 0xe8
 8001fee:	f003 0318 	and.w	r3, r3, #24
 8001ff2:	2b18      	cmp	r3, #24
 8001ff4:	f200 819c 	bhi.w	8002330 <HAL_RCCEx_GetPeriphCLKFreq+0x102c>
 8001ff8:	e8df f013 	tbh	[pc, r3, lsl #1]
 8001ffc:	019a0019 	orrseq	r0, sl, r9, lsl r0
 8002000:	019a019a 			; <UNDEFINED> instruction: 0x019a019a
 8002004:	019a019a 			; <UNDEFINED> instruction: 0x019a019a
 8002008:	019a019a 			; <UNDEFINED> instruction: 0x019a019a
 800200c:	019a001c 	orrseq	r0, sl, ip, lsl r0
 8002010:	019a019a 			; <UNDEFINED> instruction: 0x019a019a
 8002014:	019a019a 			; <UNDEFINED> instruction: 0x019a019a
 8002018:	019a019a 			; <UNDEFINED> instruction: 0x019a019a
 800201c:	019a001f 	orrseq	r0, sl, pc, lsl r0
 8002020:	019a019a 			; <UNDEFINED> instruction: 0x019a019a
 8002024:	019a019a 			; <UNDEFINED> instruction: 0x019a019a
 8002028:	019a019a 			; <UNDEFINED> instruction: 0x019a019a
 800202c:	f7fe0027 			; <UNDEFINED> instruction: 0xf7fe0027
 8002030:	fe2f e10d 	cdp2	1, 2, cr14, cr15, cr13, {0}
 8002034:	f7fe fd3a 	bl	8000aac <HAL_RCC_GetSysClockFreq>
 8002038:	e10a      	b.n	8002250 <HAL_RCCEx_GetPeriphCLKFreq+0xf4c>
 800203a:	4b68      	ldr	r3, [pc, #416]	; (80021dc <HAL_RCCEx_GetPeriphCLKFreq+0xed8>)
 800203c:	6818      	ldr	r0, [r3, #0]
 800203e:	f410 6080 	ands.w	r0, r0, #1024	; 0x400
 8002042:	f000 8105 	beq.w	8002250 <HAL_RCCEx_GetPeriphCLKFreq+0xf4c>
 8002046:	4867      	ldr	r0, [pc, #412]	; (80021e4 <HAL_RCCEx_GetPeriphCLKFreq+0xee0>)
 8002048:	e102      	b.n	8002250 <HAL_RCCEx_GetPeriphCLKFreq+0xf4c>
 800204a:	4b64      	ldr	r3, [pc, #400]	; (80021dc <HAL_RCCEx_GetPeriphCLKFreq+0xed8>)
 800204c:	6818      	ldr	r0, [r3, #0]
 800204e:	f010 0020 	ands.w	r0, r0, #32
 8002052:	f000 80fd 	beq.w	8002250 <HAL_RCCEx_GetPeriphCLKFreq+0xf4c>
 8002056:	689b      	ldr	r3, [r3, #8]
 8002058:	f413 0f00 	tst.w	r3, #8388608	; 0x800000
 800205c:	d007      	beq.n	800206e <HAL_RCCEx_GetPeriphCLKFreq+0xd6a>
 800205e:	4b5f      	ldr	r3, [pc, #380]	; (80021dc <HAL_RCCEx_GetPeriphCLKFreq+0xed8>)
 8002060:	689b      	ldr	r3, [r3, #8]
 8002062:	f3c3 6303 	ubfx	r3, r3, #24, #4
 8002066:	4a5e      	ldr	r2, [pc, #376]	; (80021e0 <HAL_RCCEx_GetPeriphCLKFreq+0xedc>)
 8002068:	f852 0023 	ldr.w	r0, [r2, r3, lsl #2]
 800206c:	e0f0      	b.n	8002250 <HAL_RCCEx_GetPeriphCLKFreq+0xf4c>
 800206e:	4b5b      	ldr	r3, [pc, #364]	; (80021dc <HAL_RCCEx_GetPeriphCLKFreq+0xed8>)
 8002070:	f8d3 30f4 	ldr.w	r3, [r3, #244]	; 0xf4
 8002074:	f3c3 2303 	ubfx	r3, r3, #8, #4
 8002078:	e7f5      	b.n	8002066 <HAL_RCCEx_GetPeriphCLKFreq+0xd62>
 800207a:	4b58      	ldr	r3, [pc, #352]	; (80021dc <HAL_RCCEx_GetPeriphCLKFreq+0xed8>)
 800207c:	f8d3 30e4 	ldr.w	r3, [r3, #228]	; 0xe4
 8002080:	f403 1340 	and.w	r3, r3, #3145728	; 0x300000
 8002084:	f5b3 1f00 	cmp.w	r3, #2097152	; 0x200000
 8002088:	d021      	beq.n	80020ce <HAL_RCCEx_GetPeriphCLKFreq+0xdca>
 800208a:	d817      	bhi.n	80020bc <HAL_RCCEx_GetPeriphCLKFreq+0xdb8>
 800208c:	b323      	cbz	r3, 80020d8 <HAL_RCCEx_GetPeriphCLKFreq+0xdd4>
 800208e:	f5b3 1f80 	cmp.w	r3, #1048576	; 0x100000
 8002092:	d111      	bne.n	80020b8 <HAL_RCCEx_GetPeriphCLKFreq+0xdb4>
 8002094:	4b51      	ldr	r3, [pc, #324]	; (80021dc <HAL_RCCEx_GetPeriphCLKFreq+0xed8>)
 8002096:	6818      	ldr	r0, [r3, #0]
 8002098:	f010 0020 	ands.w	r0, r0, #32
 800209c:	f000 80d8 	beq.w	8002250 <HAL_RCCEx_GetPeriphCLKFreq+0xf4c>
 80020a0:	689b      	ldr	r3, [r3, #8]
 80020a2:	f413 0f00 	tst.w	r3, #8388608	; 0x800000
 80020a6:	d01a      	beq.n	80020de <HAL_RCCEx_GetPeriphCLKFreq+0xdda>
 80020a8:	4b4c      	ldr	r3, [pc, #304]	; (80021dc <HAL_RCCEx_GetPeriphCLKFreq+0xed8>)
 80020aa:	689b      	ldr	r3, [r3, #8]
 80020ac:	f3c3 6303 	ubfx	r3, r3, #24, #4
 80020b0:	4a4b      	ldr	r2, [pc, #300]	; (80021e0 <HAL_RCCEx_GetPeriphCLKFreq+0xedc>)
 80020b2:	f852 0023 	ldr.w	r0, [r2, r3, lsl #2]
 80020b6:	e0cb      	b.n	8002250 <HAL_RCCEx_GetPeriphCLKFreq+0xf4c>
 80020b8:	2000      	movs	r0, #0
 80020ba:	e0c9      	b.n	8002250 <HAL_RCCEx_GetPeriphCLKFreq+0xf4c>
 80020bc:	f5b3 1f40 	cmp.w	r3, #3145728	; 0x300000
 80020c0:	f040 8138 	bne.w	8002334 <HAL_RCCEx_GetPeriphCLKFreq+0x1030>
 80020c4:	a804      	add	r0, sp, #16
 80020c6:	f7fe ff01 	bl	8000ecc <HAL_RCCEx_GetPLL2ClockFreq>
 80020ca:	9805      	ldr	r0, [sp, #20]
 80020cc:	e0c0      	b.n	8002250 <HAL_RCCEx_GetPeriphCLKFreq+0xf4c>
 80020ce:	a807      	add	r0, sp, #28
 80020d0:	f7fe fdee 	bl	8000cb0 <HAL_RCCEx_GetPLL1ClockFreq>
 80020d4:	9808      	ldr	r0, [sp, #32]
 80020d6:	e0bb      	b.n	8002250 <HAL_RCCEx_GetPeriphCLKFreq+0xf4c>
 80020d8:	f7fe fce8 	bl	8000aac <HAL_RCC_GetSysClockFreq>
 80020dc:	e0b8      	b.n	8002250 <HAL_RCCEx_GetPeriphCLKFreq+0xf4c>
 80020de:	4b3f      	ldr	r3, [pc, #252]	; (80021dc <HAL_RCCEx_GetPeriphCLKFreq+0xed8>)
 80020e0:	f8d3 30f4 	ldr.w	r3, [r3, #244]	; 0xf4
 80020e4:	f3c3 2303 	ubfx	r3, r3, #8, #4
 80020e8:	e7e2      	b.n	80020b0 <HAL_RCCEx_GetPeriphCLKFreq+0xdac>
 80020ea:	4b3c      	ldr	r3, [pc, #240]	; (80021dc <HAL_RCCEx_GetPeriphCLKFreq+0xed8>)
 80020ec:	f8d3 30e4 	ldr.w	r3, [r3, #228]	; 0xe4
 80020f0:	f403 0340 	and.w	r3, r3, #12582912	; 0xc00000
 80020f4:	f5b3 0f00 	cmp.w	r3, #8388608	; 0x800000
 80020f8:	d018      	beq.n	800212c <HAL_RCCEx_GetPeriphCLKFreq+0xe28>
 80020fa:	d80a      	bhi.n	8002112 <HAL_RCCEx_GetPeriphCLKFreq+0xe0e>
 80020fc:	b19b      	cbz	r3, 8002126 <HAL_RCCEx_GetPeriphCLKFreq+0xe22>
 80020fe:	f5b3 0f80 	cmp.w	r3, #4194304	; 0x400000
 8002102:	d104      	bne.n	800210e <HAL_RCCEx_GetPeriphCLKFreq+0xe0a>
 8002104:	a807      	add	r0, sp, #28
 8002106:	f7fe fdd3 	bl	8000cb0 <HAL_RCCEx_GetPLL1ClockFreq>
 800210a:	9808      	ldr	r0, [sp, #32]
 800210c:	e0a0      	b.n	8002250 <HAL_RCCEx_GetPeriphCLKFreq+0xf4c>
 800210e:	2000      	movs	r0, #0
 8002110:	e09e      	b.n	8002250 <HAL_RCCEx_GetPeriphCLKFreq+0xf4c>
 8002112:	f5b3 0f40 	cmp.w	r3, #12582912	; 0xc00000
 8002116:	d104      	bne.n	8002122 <HAL_RCCEx_GetPeriphCLKFreq+0xe1e>
 8002118:	a801      	add	r0, sp, #4
 800211a:	f7fe ffe5 	bl	80010e8 <HAL_RCCEx_GetPLL3ClockFreq>
 800211e:	9803      	ldr	r0, [sp, #12]
 8002120:	e096      	b.n	8002250 <HAL_RCCEx_GetPeriphCLKFreq+0xf4c>
 8002122:	2000      	movs	r0, #0
 8002124:	e094      	b.n	8002250 <HAL_RCCEx_GetPeriphCLKFreq+0xf4c>
 8002126:	f7fe fcc1 	bl	8000aac <HAL_RCC_GetSysClockFreq>
 800212a:	e091      	b.n	8002250 <HAL_RCCEx_GetPeriphCLKFreq+0xf4c>
 800212c:	a804      	add	r0, sp, #16
 800212e:	f7fe fecd 	bl	8000ecc <HAL_RCCEx_GetPLL2ClockFreq>
 8002132:	9805      	ldr	r0, [sp, #20]
 8002134:	e08c      	b.n	8002250 <HAL_RCCEx_GetPeriphCLKFreq+0xf4c>
 8002136:	4b29      	ldr	r3, [pc, #164]	; (80021dc <HAL_RCCEx_GetPeriphCLKFreq+0xed8>)
 8002138:	f8d3 00e8 	ldr.w	r0, [r3, #232]	; 0xe8
 800213c:	f400 4000 	and.w	r0, r0, #32768	; 0x8000
 8002140:	f8d3 30f0 	ldr.w	r3, [r3, #240]	; 0xf0
 8002144:	f013 0f02 	tst.w	r3, #2
 8002148:	d002      	beq.n	8002150 <HAL_RCCEx_GetPeriphCLKFreq+0xe4c>
 800214a:	2800      	cmp	r0, #0
 800214c:	f000 80f4 	beq.w	8002338 <HAL_RCCEx_GetPeriphCLKFreq+0x1034>
 8002150:	4b22      	ldr	r3, [pc, #136]	; (80021dc <HAL_RCCEx_GetPeriphCLKFreq+0xed8>)
 8002152:	f8d3 30f0 	ldr.w	r3, [r3, #240]	; 0xf0
 8002156:	f013 6300 	ands.w	r3, r3, #134217728	; 0x8000000
 800215a:	f000 80f0 	beq.w	800233e <HAL_RCCEx_GetPeriphCLKFreq+0x103a>
 800215e:	2800      	cmp	r0, #0
 8002160:	d076      	beq.n	8002250 <HAL_RCCEx_GetPeriphCLKFreq+0xf4c>
 8002162:	4b1e      	ldr	r3, [pc, #120]	; (80021dc <HAL_RCCEx_GetPeriphCLKFreq+0xed8>)
 8002164:	f8d3 30f0 	ldr.w	r3, [r3, #240]	; 0xf0
 8002168:	f013 5f80 	tst.w	r3, #268435456	; 0x10000000
 800216c:	f000 80e9 	beq.w	8002342 <HAL_RCCEx_GetPeriphCLKFreq+0x103e>
 8002170:	20fa      	movs	r0, #250	; 0xfa
 8002172:	e06d      	b.n	8002250 <HAL_RCCEx_GetPeriphCLKFreq+0xf4c>
 8002174:	4a19      	ldr	r2, [pc, #100]	; (80021dc <HAL_RCCEx_GetPeriphCLKFreq+0xed8>)
 8002176:	f8d2 30e4 	ldr.w	r3, [r2, #228]	; 0xe4
 800217a:	f403 5340 	and.w	r3, r3, #12288	; 0x3000
 800217e:	6812      	ldr	r2, [r2, #0]
 8002180:	f412 5f00 	tst.w	r2, #8192	; 0x2000
 8002184:	d002      	beq.n	800218c <HAL_RCCEx_GetPeriphCLKFreq+0xe88>
 8002186:	2b00      	cmp	r3, #0
 8002188:	f000 80de 	beq.w	8002348 <HAL_RCCEx_GetPeriphCLKFreq+0x1044>
 800218c:	4a13      	ldr	r2, [pc, #76]	; (80021dc <HAL_RCCEx_GetPeriphCLKFreq+0xed8>)
 800218e:	6812      	ldr	r2, [r2, #0]
 8002190:	f412 5f00 	tst.w	r2, #8192	; 0x2000
 8002194:	d003      	beq.n	800219e <HAL_RCCEx_GetPeriphCLKFreq+0xe9a>
 8002196:	f5b3 5f80 	cmp.w	r3, #4096	; 0x1000
 800219a:	f000 80d7 	beq.w	800234c <HAL_RCCEx_GetPeriphCLKFreq+0x1048>
 800219e:	4a0f      	ldr	r2, [pc, #60]	; (80021dc <HAL_RCCEx_GetPeriphCLKFreq+0xed8>)
 80021a0:	6812      	ldr	r2, [r2, #0]
 80021a2:	f412 6f80 	tst.w	r2, #1024	; 0x400
 80021a6:	f000 80d3 	beq.w	8002350 <HAL_RCCEx_GetPeriphCLKFreq+0x104c>
 80021aa:	f5b3 5f00 	cmp.w	r3, #8192	; 0x2000
 80021ae:	f000 80d1 	beq.w	8002354 <HAL_RCCEx_GetPeriphCLKFreq+0x1050>
 80021b2:	2000      	movs	r0, #0
 80021b4:	e04c      	b.n	8002250 <HAL_RCCEx_GetPeriphCLKFreq+0xf4c>
 80021b6:	4b09      	ldr	r3, [pc, #36]	; (80021dc <HAL_RCCEx_GetPeriphCLKFreq+0xed8>)
 80021b8:	f8d3 30e4 	ldr.w	r3, [r3, #228]	; 0xe4
 80021bc:	f413 2380 	ands.w	r3, r3, #262144	; 0x40000
 80021c0:	d002      	beq.n	80021c8 <HAL_RCCEx_GetPeriphCLKFreq+0xec4>
 80021c2:	b933      	cbnz	r3, 80021d2 <HAL_RCCEx_GetPeriphCLKFreq+0xece>
 80021c4:	2000      	movs	r0, #0
 80021c6:	e043      	b.n	8002250 <HAL_RCCEx_GetPeriphCLKFreq+0xf4c>
 80021c8:	a801      	add	r0, sp, #4
 80021ca:	f7fe ff8d 	bl	80010e8 <HAL_RCCEx_GetPLL3ClockFreq>
 80021ce:	9803      	ldr	r0, [sp, #12]
 80021d0:	e03e      	b.n	8002250 <HAL_RCCEx_GetPeriphCLKFreq+0xf4c>
 80021d2:	a804      	add	r0, sp, #16
 80021d4:	f7fe fe7a 	bl	8000ecc <HAL_RCCEx_GetPLL2ClockFreq>
 80021d8:	9806      	ldr	r0, [sp, #24]
 80021da:	e039      	b.n	8002250 <HAL_RCCEx_GetPeriphCLKFreq+0xf4c>
 80021dc:	46020c00 	strmi	r0, [r2], -r0, lsl #24
 80021e0:	08003da0 	stmdaeq	r0, {r5, r7, r8, sl, fp, ip, sp}
 80021e4:	00f42400 	rscseq	r2, r4, r0, lsl #8
 80021e8:	4a5d      	ldr	r2, [pc, #372]	; (8002360 <HAL_RCCEx_GetPeriphCLKFreq+0x105c>)
 80021ea:	f8d2 30e4 	ldr.w	r3, [r2, #228]	; 0xe4
 80021ee:	f003 4340 	and.w	r3, r3, #3221225472	; 0xc0000000
 80021f2:	6812      	ldr	r2, [r2, #0]
 80021f4:	f412 3f00 	tst.w	r2, #131072	; 0x20000
 80021f8:	d002      	beq.n	8002200 <HAL_RCCEx_GetPeriphCLKFreq+0xefc>
 80021fa:	2b00      	cmp	r3, #0
 80021fc:	f000 80ac 	beq.w	8002358 <HAL_RCCEx_GetPeriphCLKFreq+0x1054>
 8002200:	4a57      	ldr	r2, [pc, #348]	; (8002360 <HAL_RCCEx_GetPeriphCLKFreq+0x105c>)
 8002202:	6812      	ldr	r2, [r2, #0]
 8002204:	f412 3f00 	tst.w	r2, #131072	; 0x20000
 8002208:	d003      	beq.n	8002212 <HAL_RCCEx_GetPeriphCLKFreq+0xf0e>
 800220a:	f1b3 4f00 	cmp.w	r3, #2147483648	; 0x80000000
 800220e:	f000 80a5 	beq.w	800235c <HAL_RCCEx_GetPeriphCLKFreq+0x1058>
 8002212:	f1b3 4f80 	cmp.w	r3, #1073741824	; 0x40000000
 8002216:	d004      	beq.n	8002222 <HAL_RCCEx_GetPeriphCLKFreq+0xf1e>
 8002218:	f1b3 4f40 	cmp.w	r3, #3221225472	; 0xc0000000
 800221c:	d006      	beq.n	800222c <HAL_RCCEx_GetPeriphCLKFreq+0xf28>
 800221e:	2000      	movs	r0, #0
 8002220:	e016      	b.n	8002250 <HAL_RCCEx_GetPeriphCLKFreq+0xf4c>
 8002222:	a807      	add	r0, sp, #28
 8002224:	f7fe fd44 	bl	8000cb0 <HAL_RCCEx_GetPLL1ClockFreq>
 8002228:	9807      	ldr	r0, [sp, #28]
 800222a:	e011      	b.n	8002250 <HAL_RCCEx_GetPeriphCLKFreq+0xf4c>
 800222c:	a807      	add	r0, sp, #28
 800222e:	f7fe fd3f 	bl	8000cb0 <HAL_RCCEx_GetPLL1ClockFreq>
 8002232:	9807      	ldr	r0, [sp, #28]
 8002234:	0840      	lsrs	r0, r0, #1
 8002236:	e00b      	b.n	8002250 <HAL_RCCEx_GetPeriphCLKFreq+0xf4c>
 8002238:	f44f 4000 	mov.w	r0, #32768	; 0x8000
 800223c:	4770      	bx	lr
 800223e:	f44f 40fa 	mov.w	r0, #32000	; 0x7d00
 8002242:	4770      	bx	lr
 8002244:	2000      	movs	r0, #0
 8002246:	4770      	bx	lr
 8002248:	4846      	ldr	r0, [pc, #280]	; (8002364 <HAL_RCCEx_GetPeriphCLKFreq+0x1060>)
 800224a:	4770      	bx	lr
 800224c:	f64b 3080 	movw	r0, #48000	; 0xbb80
 8002250:	b00b      	add	sp, #44	; 0x2c
 8002252:	f85d fb04 	ldr.w	pc, [sp], #4
 8002256:	f64b 3080 	movw	r0, #48000	; 0xbb80
 800225a:	e7f9      	b.n	8002250 <HAL_RCCEx_GetPeriphCLKFreq+0xf4c>
 800225c:	4842      	ldr	r0, [pc, #264]	; (8002368 <HAL_RCCEx_GetPeriphCLKFreq+0x1064>)
 800225e:	e7f7      	b.n	8002250 <HAL_RCCEx_GetPeriphCLKFreq+0xf4c>
 8002260:	2000      	movs	r0, #0
 8002262:	e7f5      	b.n	8002250 <HAL_RCCEx_GetPeriphCLKFreq+0xf4c>
 8002264:	4841      	ldr	r0, [pc, #260]	; (800236c <HAL_RCCEx_GetPeriphCLKFreq+0x1068>)
 8002266:	e7f3      	b.n	8002250 <HAL_RCCEx_GetPeriphCLKFreq+0xf4c>
 8002268:	483f      	ldr	r0, [pc, #252]	; (8002368 <HAL_RCCEx_GetPeriphCLKFreq+0x1064>)
 800226a:	e7f1      	b.n	8002250 <HAL_RCCEx_GetPeriphCLKFreq+0xf4c>
 800226c:	2000      	movs	r0, #0
 800226e:	e7ef      	b.n	8002250 <HAL_RCCEx_GetPeriphCLKFreq+0xf4c>
 8002270:	f44f 4000 	mov.w	r0, #32768	; 0x8000
 8002274:	e7ec      	b.n	8002250 <HAL_RCCEx_GetPeriphCLKFreq+0xf4c>
 8002276:	483c      	ldr	r0, [pc, #240]	; (8002368 <HAL_RCCEx_GetPeriphCLKFreq+0x1064>)
 8002278:	e7ea      	b.n	8002250 <HAL_RCCEx_GetPeriphCLKFreq+0xf4c>
 800227a:	2000      	movs	r0, #0
 800227c:	e7e8      	b.n	8002250 <HAL_RCCEx_GetPeriphCLKFreq+0xf4c>
 800227e:	f44f 4000 	mov.w	r0, #32768	; 0x8000
 8002282:	e7e5      	b.n	8002250 <HAL_RCCEx_GetPeriphCLKFreq+0xf4c>
 8002284:	4838      	ldr	r0, [pc, #224]	; (8002368 <HAL_RCCEx_GetPeriphCLKFreq+0x1064>)
 8002286:	e7e3      	b.n	8002250 <HAL_RCCEx_GetPeriphCLKFreq+0xf4c>
 8002288:	2000      	movs	r0, #0
 800228a:	e7e1      	b.n	8002250 <HAL_RCCEx_GetPeriphCLKFreq+0xf4c>
 800228c:	f44f 4000 	mov.w	r0, #32768	; 0x8000
 8002290:	e7de      	b.n	8002250 <HAL_RCCEx_GetPeriphCLKFreq+0xf4c>
 8002292:	4835      	ldr	r0, [pc, #212]	; (8002368 <HAL_RCCEx_GetPeriphCLKFreq+0x1064>)
 8002294:	e7dc      	b.n	8002250 <HAL_RCCEx_GetPeriphCLKFreq+0xf4c>
 8002296:	2000      	movs	r0, #0
 8002298:	e7da      	b.n	8002250 <HAL_RCCEx_GetPeriphCLKFreq+0xf4c>
 800229a:	f44f 4000 	mov.w	r0, #32768	; 0x8000
 800229e:	e7d7      	b.n	8002250 <HAL_RCCEx_GetPeriphCLKFreq+0xf4c>
 80022a0:	4831      	ldr	r0, [pc, #196]	; (8002368 <HAL_RCCEx_GetPeriphCLKFreq+0x1064>)
 80022a2:	e7d5      	b.n	8002250 <HAL_RCCEx_GetPeriphCLKFreq+0xf4c>
 80022a4:	2000      	movs	r0, #0
 80022a6:	e7d3      	b.n	8002250 <HAL_RCCEx_GetPeriphCLKFreq+0xf4c>
 80022a8:	f44f 4000 	mov.w	r0, #32768	; 0x8000
 80022ac:	e7d0      	b.n	8002250 <HAL_RCCEx_GetPeriphCLKFreq+0xf4c>
 80022ae:	482e      	ldr	r0, [pc, #184]	; (8002368 <HAL_RCCEx_GetPeriphCLKFreq+0x1064>)
 80022b0:	e7ce      	b.n	8002250 <HAL_RCCEx_GetPeriphCLKFreq+0xf4c>
 80022b2:	2000      	movs	r0, #0
 80022b4:	e7cc      	b.n	8002250 <HAL_RCCEx_GetPeriphCLKFreq+0xf4c>
 80022b6:	f44f 4000 	mov.w	r0, #32768	; 0x8000
 80022ba:	e7c9      	b.n	8002250 <HAL_RCCEx_GetPeriphCLKFreq+0xf4c>
 80022bc:	482a      	ldr	r0, [pc, #168]	; (8002368 <HAL_RCCEx_GetPeriphCLKFreq+0x1064>)
 80022be:	e7c7      	b.n	8002250 <HAL_RCCEx_GetPeriphCLKFreq+0xf4c>
 80022c0:	f44f 4000 	mov.w	r0, #32768	; 0x8000
 80022c4:	e7c4      	b.n	8002250 <HAL_RCCEx_GetPeriphCLKFreq+0xf4c>
 80022c6:	4828      	ldr	r0, [pc, #160]	; (8002368 <HAL_RCCEx_GetPeriphCLKFreq+0x1064>)
 80022c8:	e7c2      	b.n	8002250 <HAL_RCCEx_GetPeriphCLKFreq+0xf4c>
 80022ca:	2000      	movs	r0, #0
 80022cc:	e7c0      	b.n	8002250 <HAL_RCCEx_GetPeriphCLKFreq+0xf4c>
 80022ce:	4826      	ldr	r0, [pc, #152]	; (8002368 <HAL_RCCEx_GetPeriphCLKFreq+0x1064>)
 80022d0:	e7be      	b.n	8002250 <HAL_RCCEx_GetPeriphCLKFreq+0xf4c>
 80022d2:	2000      	movs	r0, #0
 80022d4:	e7bc      	b.n	8002250 <HAL_RCCEx_GetPeriphCLKFreq+0xf4c>
 80022d6:	f64b 3080 	movw	r0, #48000	; 0xbb80
 80022da:	e7b9      	b.n	8002250 <HAL_RCCEx_GetPeriphCLKFreq+0xf4c>
 80022dc:	4822      	ldr	r0, [pc, #136]	; (8002368 <HAL_RCCEx_GetPeriphCLKFreq+0x1064>)
 80022de:	e7b7      	b.n	8002250 <HAL_RCCEx_GetPeriphCLKFreq+0xf4c>
 80022e0:	4821      	ldr	r0, [pc, #132]	; (8002368 <HAL_RCCEx_GetPeriphCLKFreq+0x1064>)
 80022e2:	e7b5      	b.n	8002250 <HAL_RCCEx_GetPeriphCLKFreq+0xf4c>
 80022e4:	4820      	ldr	r0, [pc, #128]	; (8002368 <HAL_RCCEx_GetPeriphCLKFreq+0x1064>)
 80022e6:	e7b3      	b.n	8002250 <HAL_RCCEx_GetPeriphCLKFreq+0xf4c>
 80022e8:	481f      	ldr	r0, [pc, #124]	; (8002368 <HAL_RCCEx_GetPeriphCLKFreq+0x1064>)
 80022ea:	e7b1      	b.n	8002250 <HAL_RCCEx_GetPeriphCLKFreq+0xf4c>
 80022ec:	481e      	ldr	r0, [pc, #120]	; (8002368 <HAL_RCCEx_GetPeriphCLKFreq+0x1064>)
 80022ee:	e7af      	b.n	8002250 <HAL_RCCEx_GetPeriphCLKFreq+0xf4c>
 80022f0:	f44f 40fa 	mov.w	r0, #32000	; 0x7d00
 80022f4:	e7ac      	b.n	8002250 <HAL_RCCEx_GetPeriphCLKFreq+0xf4c>
 80022f6:	481c      	ldr	r0, [pc, #112]	; (8002368 <HAL_RCCEx_GetPeriphCLKFreq+0x1064>)
 80022f8:	e7aa      	b.n	8002250 <HAL_RCCEx_GetPeriphCLKFreq+0xf4c>
 80022fa:	2000      	movs	r0, #0
 80022fc:	e7a8      	b.n	8002250 <HAL_RCCEx_GetPeriphCLKFreq+0xf4c>
 80022fe:	f44f 4000 	mov.w	r0, #32768	; 0x8000
 8002302:	e7a5      	b.n	8002250 <HAL_RCCEx_GetPeriphCLKFreq+0xf4c>
 8002304:	f44f 40fa 	mov.w	r0, #32000	; 0x7d00
 8002308:	e7a2      	b.n	8002250 <HAL_RCCEx_GetPeriphCLKFreq+0xf4c>
 800230a:	4817      	ldr	r0, [pc, #92]	; (8002368 <HAL_RCCEx_GetPeriphCLKFreq+0x1064>)
 800230c:	e7a0      	b.n	8002250 <HAL_RCCEx_GetPeriphCLKFreq+0xf4c>
 800230e:	2000      	movs	r0, #0
 8002310:	e79e      	b.n	8002250 <HAL_RCCEx_GetPeriphCLKFreq+0xf4c>
 8002312:	f44f 4000 	mov.w	r0, #32768	; 0x8000
 8002316:	e79b      	b.n	8002250 <HAL_RCCEx_GetPeriphCLKFreq+0xf4c>
 8002318:	f44f 40fa 	mov.w	r0, #32000	; 0x7d00
 800231c:	e798      	b.n	8002250 <HAL_RCCEx_GetPeriphCLKFreq+0xf4c>
 800231e:	4812      	ldr	r0, [pc, #72]	; (8002368 <HAL_RCCEx_GetPeriphCLKFreq+0x1064>)
 8002320:	e796      	b.n	8002250 <HAL_RCCEx_GetPeriphCLKFreq+0xf4c>
 8002322:	2000      	movs	r0, #0
 8002324:	e794      	b.n	8002250 <HAL_RCCEx_GetPeriphCLKFreq+0xf4c>
 8002326:	f44f 4000 	mov.w	r0, #32768	; 0x8000
 800232a:	e791      	b.n	8002250 <HAL_RCCEx_GetPeriphCLKFreq+0xf4c>
 800232c:	480e      	ldr	r0, [pc, #56]	; (8002368 <HAL_RCCEx_GetPeriphCLKFreq+0x1064>)
 800232e:	e78f      	b.n	8002250 <HAL_RCCEx_GetPeriphCLKFreq+0xf4c>
 8002330:	2000      	movs	r0, #0
 8002332:	e78d      	b.n	8002250 <HAL_RCCEx_GetPeriphCLKFreq+0xf4c>
 8002334:	2000      	movs	r0, #0
 8002336:	e78b      	b.n	8002250 <HAL_RCCEx_GetPeriphCLKFreq+0xf4c>
 8002338:	f44f 4000 	mov.w	r0, #32768	; 0x8000
 800233c:	e788      	b.n	8002250 <HAL_RCCEx_GetPeriphCLKFreq+0xf4c>
 800233e:	4618      	mov	r0, r3
 8002340:	e786      	b.n	8002250 <HAL_RCCEx_GetPeriphCLKFreq+0xf4c>
 8002342:	f44f 40fa 	mov.w	r0, #32000	; 0x7d00
 8002346:	e783      	b.n	8002250 <HAL_RCCEx_GetPeriphCLKFreq+0xf4c>
 8002348:	4809      	ldr	r0, [pc, #36]	; (8002370 <HAL_RCCEx_GetPeriphCLKFreq+0x106c>)
 800234a:	e781      	b.n	8002250 <HAL_RCCEx_GetPeriphCLKFreq+0xf4c>
 800234c:	4809      	ldr	r0, [pc, #36]	; (8002374 <HAL_RCCEx_GetPeriphCLKFreq+0x1070>)
 800234e:	e77f      	b.n	8002250 <HAL_RCCEx_GetPeriphCLKFreq+0xf4c>
 8002350:	2000      	movs	r0, #0
 8002352:	e77d      	b.n	8002250 <HAL_RCCEx_GetPeriphCLKFreq+0xf4c>
 8002354:	4804      	ldr	r0, [pc, #16]	; (8002368 <HAL_RCCEx_GetPeriphCLKFreq+0x1064>)
 8002356:	e77b      	b.n	8002250 <HAL_RCCEx_GetPeriphCLKFreq+0xf4c>
 8002358:	4803      	ldr	r0, [pc, #12]	; (8002368 <HAL_RCCEx_GetPeriphCLKFreq+0x1064>)
 800235a:	e779      	b.n	8002250 <HAL_RCCEx_GetPeriphCLKFreq+0xf4c>
 800235c:	4803      	ldr	r0, [pc, #12]	; (800236c <HAL_RCCEx_GetPeriphCLKFreq+0x1068>)
 800235e:	e777      	b.n	8002250 <HAL_RCCEx_GetPeriphCLKFreq+0xf4c>
 8002360:	46020c00 	strmi	r0, [r2], -r0, lsl #24
 8002364:	0007a120 	andeq	sl, r7, r0, lsr #2
 8002368:	00f42400 	rscseq	r2, r4, r0, lsl #8
 800236c:	007a1200 	rsbseq	r1, sl, r0, lsl #4
 8002370:	02dc6c00 	sbcseq	r6, ip, #0, 24
 8002374:	016e3600 	cmneq	lr, r0, lsl #12

08002378 <HAL_NVIC_SetPriorityGrouping>:
 8002378:	4a07      	ldr	r2, [pc, #28]	; (8002398 <HAL_NVIC_SetPriorityGrouping+0x20>)
 800237a:	68d3      	ldr	r3, [r2, #12]
 800237c:	f423 63e0 	bic.w	r3, r3, #1792	; 0x700
 8002380:	041b      	lsls	r3, r3, #16
 8002382:	0c1b      	lsrs	r3, r3, #16
 8002384:	0200      	lsls	r0, r0, #8
 8002386:	f400 60e0 	and.w	r0, r0, #1792	; 0x700
 800238a:	4303      	orrs	r3, r0
 800238c:	f043 63bf 	orr.w	r3, r3, #100139008	; 0x5f80000
 8002390:	f443 3300 	orr.w	r3, r3, #131072	; 0x20000
 8002394:	60d3      	str	r3, [r2, #12]
 8002396:	4770      	bx	lr
 8002398:	e000ed00 	and	lr, r0, r0, lsl #26

0800239c <HAL_NVIC_SetPriority>:
 800239c:	b500      	push	{lr}
 800239e:	4b19      	ldr	r3, [pc, #100]	; (8002404 <HAL_NVIC_SetPriority+0x68>)
 80023a0:	68db      	ldr	r3, [r3, #12]
 80023a2:	f3c3 2302 	ubfx	r3, r3, #8, #3
 80023a6:	f1c3 0c07 	rsb	ip, r3, #7
 80023aa:	f1bc 0f04 	cmp.w	ip, #4
 80023ae:	bf28      	it	cs
 80023b0:	f04f 0c04 	movcs.w	ip, #4
 80023b4:	f103 0e04 	add.w	lr, r3, #4
 80023b8:	f1be 0f06 	cmp.w	lr, #6
 80023bc:	d918      	bls.n	80023f0 <HAL_NVIC_SetPriority+0x54>
 80023be:	3b03      	subs	r3, #3
 80023c0:	f04f 3eff 	mov.w	lr, #4294967295	; 0xffffffff
 80023c4:	fa0e fc0c 	lsl.w	ip, lr, ip
 80023c8:	ea21 010c 	bic.w	r1, r1, ip
 80023cc:	4099      	lsls	r1, r3
 80023ce:	fa0e f303 	lsl.w	r3, lr, r3
 80023d2:	ea22 0303 	bic.w	r3, r2, r3
 80023d6:	4319      	orrs	r1, r3
 80023d8:	2800      	cmp	r0, #0
 80023da:	db0b      	blt.n	80023f4 <HAL_NVIC_SetPriority+0x58>
 80023dc:	0109      	lsls	r1, r1, #4
 80023de:	b2c9      	uxtb	r1, r1
 80023e0:	f100 4060 	add.w	r0, r0, #3758096384	; 0xe0000000
 80023e4:	f500 4061 	add.w	r0, r0, #57600	; 0xe100
 80023e8:	f880 1300 	strb.w	r1, [r0, #768]	; 0x300
 80023ec:	f85d fb04 	ldr.w	pc, [sp], #4
 80023f0:	2300      	movs	r3, #0
 80023f2:	e7e5      	b.n	80023c0 <HAL_NVIC_SetPriority+0x24>
 80023f4:	f000 000f 	and.w	r0, r0, #15
 80023f8:	0109      	lsls	r1, r1, #4
 80023fa:	b2c9      	uxtb	r1, r1
 80023fc:	4b02      	ldr	r3, [pc, #8]	; (8002408 <HAL_NVIC_SetPriority+0x6c>)
 80023fe:	5419      	strb	r1, [r3, r0]
 8002400:	e7f4      	b.n	80023ec <HAL_NVIC_SetPriority+0x50>
 8002402:	bf00      	nop
 8002404:	e000ed00 	and	lr, r0, r0, lsl #26
 8002408:	e000ed14 	and	lr, r0, r4, lsl sp

0800240c <HAL_SYSTICK_Config>:
 800240c:	3801      	subs	r0, #1
 800240e:	f1b0 7f80 	cmp.w	r0, #16777216	; 0x1000000
 8002412:	d20b      	bcs.n	800242c <HAL_SYSTICK_Config+0x20>
 8002414:	f04f 23e0 	mov.w	r3, #3758153728	; 0xe000e000
 8002418:	6158      	str	r0, [r3, #20]
 800241a:	4a05      	ldr	r2, [pc, #20]	; (8002430 <HAL_SYSTICK_Config+0x24>)
 800241c:	21f0      	movs	r1, #240	; 0xf0
 800241e:	f882 1023 	strb.w	r1, [r2, #35]	; 0x23
 8002422:	2000      	movs	r0, #0
 8002424:	6198      	str	r0, [r3, #24]
 8002426:	2207      	movs	r2, #7
 8002428:	611a      	str	r2, [r3, #16]
 800242a:	4770      	bx	lr
 800242c:	2001      	movs	r0, #1
 800242e:	4770      	bx	lr
 8002430:	e000ed00 	and	lr, r0, r0, lsl #26

08002434 <HAL_GPIO_Init>:
 8002434:	b5f0      	push	{r4, r5, r6, r7, lr}
 8002436:	4604      	mov	r4, r0
 8002438:	2300      	movs	r3, #0
 800243a:	e0d7      	b.n	80025ec <HAL_GPIO_Init+0x1b8>
 800243c:	6804      	ldr	r4, [r0, #0]
 800243e:	ea24 0c0c 	bic.w	ip, r4, ip
 8002442:	684c      	ldr	r4, [r1, #4]
 8002444:	f004 0401 	and.w	r4, r4, #1
 8002448:	409c      	lsls	r4, r3
 800244a:	ea44 040c 	orr.w	r4, r4, ip
 800244e:	6004      	str	r4, [r0, #0]
 8002450:	4d7a      	ldr	r5, [pc, #488]	; (800263c <HAL_GPIO_Init+0x208>)
 8002452:	f855 4033 	ldr.w	r4, [r5, r3, lsl #3]
 8002456:	eb05 05c3 	add.w	r5, r5, r3, lsl #3
 800245a:	686d      	ldr	r5, [r5, #4]
 800245c:	08ef      	lsrs	r7, r5, #3
 800245e:	3708      	adds	r7, #8
 8002460:	f854 e027 	ldr.w	lr, [r4, r7, lsl #2]
 8002464:	f005 0607 	and.w	r6, r5, #7
 8002468:	ea4f 0c86 	mov.w	ip, r6, lsl #2
 800246c:	260f      	movs	r6, #15
 800246e:	fa06 f60c 	lsl.w	r6, r6, ip
 8002472:	ea2e 0e06 	bic.w	lr, lr, r6
 8002476:	260b      	movs	r6, #11
 8002478:	fa06 f60c 	lsl.w	r6, r6, ip
 800247c:	ea46 060e 	orr.w	r6, r6, lr
 8002480:	f844 6027 	str.w	r6, [r4, r7, lsl #2]
 8002484:	6827      	ldr	r7, [r4, #0]
 8002486:	ea4f 0c45 	mov.w	ip, r5, lsl #1
 800248a:	2603      	movs	r6, #3
 800248c:	fa06 f60c 	lsl.w	r6, r6, ip
 8002490:	ea27 0706 	bic.w	r7, r7, r6
 8002494:	2602      	movs	r6, #2
 8002496:	fa06 f60c 	lsl.w	r6, r6, ip
 800249a:	433e      	orrs	r6, r7
 800249c:	6026      	str	r6, [r4, #0]
 800249e:	e01f      	b.n	80024e0 <HAL_GPIO_Init+0xac>
 80024a0:	08de      	lsrs	r6, r3, #3
 80024a2:	3608      	adds	r6, #8
 80024a4:	f850 c026 	ldr.w	ip, [r0, r6, lsl #2]
 80024a8:	f003 0507 	and.w	r5, r3, #7
 80024ac:	00af      	lsls	r7, r5, #2
 80024ae:	250f      	movs	r5, #15
 80024b0:	40bd      	lsls	r5, r7
 80024b2:	ea2c 0c05 	bic.w	ip, ip, r5
 80024b6:	690d      	ldr	r5, [r1, #16]
 80024b8:	f005 050f 	and.w	r5, r5, #15
 80024bc:	40bd      	lsls	r5, r7
 80024be:	ea45 050c 	orr.w	r5, r5, ip
 80024c2:	f840 5026 	str.w	r5, [r0, r6, lsl #2]
 80024c6:	6826      	ldr	r6, [r4, #0]
 80024c8:	005f      	lsls	r7, r3, #1
 80024ca:	2503      	movs	r5, #3
 80024cc:	40bd      	lsls	r5, r7
 80024ce:	ea26 0605 	bic.w	r6, r6, r5
 80024d2:	684d      	ldr	r5, [r1, #4]
 80024d4:	f005 0503 	and.w	r5, r5, #3
 80024d8:	40bd      	lsls	r5, r7
 80024da:	4335      	orrs	r5, r6
 80024dc:	6025      	str	r5, [r4, #0]
 80024de:	461d      	mov	r5, r3
 80024e0:	684e      	ldr	r6, [r1, #4]
 80024e2:	f106 3cff 	add.w	ip, r6, #4294967295	; 0xffffffff
 80024e6:	f1bc 0f01 	cmp.w	ip, #1
 80024ea:	d903      	bls.n	80024f4 <HAL_GPIO_Init+0xc0>
 80024ec:	2e11      	cmp	r6, #17
 80024ee:	d001      	beq.n	80024f4 <HAL_GPIO_Init+0xc0>
 80024f0:	2e12      	cmp	r6, #18
 80024f2:	d11c      	bne.n	800252e <HAL_GPIO_Init+0xfa>
 80024f4:	68a6      	ldr	r6, [r4, #8]
 80024f6:	ea4f 0e45 	mov.w	lr, r5, lsl #1
 80024fa:	f04f 0c03 	mov.w	ip, #3
 80024fe:	fa0c fc0e 	lsl.w	ip, ip, lr
 8002502:	ea26 0c0c 	bic.w	ip, r6, ip
 8002506:	68ce      	ldr	r6, [r1, #12]
 8002508:	fa06 f60e 	lsl.w	r6, r6, lr
 800250c:	ea46 060c 	orr.w	r6, r6, ip
 8002510:	60a6      	str	r6, [r4, #8]
 8002512:	6866      	ldr	r6, [r4, #4]
 8002514:	f04f 0c01 	mov.w	ip, #1
 8002518:	fa0c fc05 	lsl.w	ip, ip, r5
 800251c:	ea26 0c0c 	bic.w	ip, r6, ip
 8002520:	684e      	ldr	r6, [r1, #4]
 8002522:	f3c6 1600 	ubfx	r6, r6, #4, #1
 8002526:	40ae      	lsls	r6, r5
 8002528:	ea46 060c 	orr.w	r6, r6, ip
 800252c:	6066      	str	r6, [r4, #4]
 800252e:	684e      	ldr	r6, [r1, #4]
 8002530:	2e03      	cmp	r6, #3
 8002532:	d00d      	beq.n	8002550 <HAL_GPIO_Init+0x11c>
 8002534:	68e6      	ldr	r6, [r4, #12]
 8002536:	006d      	lsls	r5, r5, #1
 8002538:	f04f 0c03 	mov.w	ip, #3
 800253c:	fa0c fc05 	lsl.w	ip, ip, r5
 8002540:	ea26 0c0c 	bic.w	ip, r6, ip
 8002544:	688e      	ldr	r6, [r1, #8]
 8002546:	fa06 f505 	lsl.w	r5, r6, r5
 800254a:	ea45 050c 	orr.w	r5, r5, ip
 800254e:	60e5      	str	r5, [r4, #12]
 8002550:	684d      	ldr	r5, [r1, #4]
 8002552:	f015 5f80 	tst.w	r5, #268435456	; 0x10000000
 8002556:	d048      	beq.n	80025ea <HAL_GPIO_Init+0x1b6>
 8002558:	089e      	lsrs	r6, r3, #2
 800255a:	4f39      	ldr	r7, [pc, #228]	; (8002640 <HAL_GPIO_Init+0x20c>)
 800255c:	3618      	adds	r6, #24
 800255e:	f857 e026 	ldr.w	lr, [r7, r6, lsl #2]
 8002562:	f003 0503 	and.w	r5, r3, #3
 8002566:	ea4f 0cc5 	mov.w	ip, r5, lsl #3
 800256a:	250f      	movs	r5, #15
 800256c:	fa05 f50c 	lsl.w	r5, r5, ip
 8002570:	ea2e 0e05 	bic.w	lr, lr, r5
 8002574:	4d33      	ldr	r5, [pc, #204]	; (8002644 <HAL_GPIO_Init+0x210>)
 8002576:	ea05 2590 	and.w	r5, r5, r0, lsr #10
 800257a:	fa05 f50c 	lsl.w	r5, r5, ip
 800257e:	ea45 050e 	orr.w	r5, r5, lr
 8002582:	f847 5026 	str.w	r5, [r7, r6, lsl #2]
 8002586:	683e      	ldr	r6, [r7, #0]
 8002588:	ea6f 0c02 	mvn.w	ip, r2
 800258c:	ea26 0702 	bic.w	r7, r6, r2
 8002590:	684d      	ldr	r5, [r1, #4]
 8002592:	f415 1f80 	tst.w	r5, #1048576	; 0x100000
 8002596:	d001      	beq.n	800259c <HAL_GPIO_Init+0x168>
 8002598:	ea42 0706 	orr.w	r7, r2, r6
 800259c:	4e28      	ldr	r6, [pc, #160]	; (8002640 <HAL_GPIO_Init+0x20c>)
 800259e:	6037      	str	r7, [r6, #0]
 80025a0:	6876      	ldr	r6, [r6, #4]
 80025a2:	ea0c 0706 	and.w	r7, ip, r6
 80025a6:	684d      	ldr	r5, [r1, #4]
 80025a8:	f415 1f00 	tst.w	r5, #2097152	; 0x200000
 80025ac:	d001      	beq.n	80025b2 <HAL_GPIO_Init+0x17e>
 80025ae:	ea42 0706 	orr.w	r7, r2, r6
 80025b2:	4e23      	ldr	r6, [pc, #140]	; (8002640 <HAL_GPIO_Init+0x20c>)
 80025b4:	6077      	str	r7, [r6, #4]
 80025b6:	f8d6 6084 	ldr.w	r6, [r6, #132]	; 0x84
 80025ba:	ea0c 0706 	and.w	r7, ip, r6
 80025be:	684d      	ldr	r5, [r1, #4]
 80025c0:	f415 3f00 	tst.w	r5, #131072	; 0x20000
 80025c4:	d001      	beq.n	80025ca <HAL_GPIO_Init+0x196>
 80025c6:	ea42 0706 	orr.w	r7, r2, r6
 80025ca:	4e1d      	ldr	r6, [pc, #116]	; (8002640 <HAL_GPIO_Init+0x20c>)
 80025cc:	f8c6 7084 	str.w	r7, [r6, #132]	; 0x84
 80025d0:	f8d6 6080 	ldr.w	r6, [r6, #128]	; 0x80
 80025d4:	ea0c 0506 	and.w	r5, ip, r6
 80025d8:	684f      	ldr	r7, [r1, #4]
 80025da:	f417 3f80 	tst.w	r7, #65536	; 0x10000
 80025de:	d001      	beq.n	80025e4 <HAL_GPIO_Init+0x1b0>
 80025e0:	ea42 0506 	orr.w	r5, r2, r6
 80025e4:	4a16      	ldr	r2, [pc, #88]	; (8002640 <HAL_GPIO_Init+0x20c>)
 80025e6:	f8c2 5080 	str.w	r5, [r2, #128]	; 0x80
 80025ea:	3301      	adds	r3, #1
 80025ec:	680a      	ldr	r2, [r1, #0]
 80025ee:	fa32 f503 	lsrs.w	r5, r2, r3
 80025f2:	d021      	beq.n	8002638 <HAL_GPIO_Init+0x204>
 80025f4:	f04f 0c01 	mov.w	ip, #1
 80025f8:	fa0c fc03 	lsl.w	ip, ip, r3
 80025fc:	ea1c 0202 	ands.w	r2, ip, r2
 8002600:	d0f3      	beq.n	80025ea <HAL_GPIO_Init+0x1b6>
 8002602:	4d11      	ldr	r5, [pc, #68]	; (8002648 <HAL_GPIO_Init+0x214>)
 8002604:	42a8      	cmp	r0, r5
 8002606:	f43f af19 	beq.w	800243c <HAL_GPIO_Init+0x8>
 800260a:	684d      	ldr	r5, [r1, #4]
 800260c:	2d02      	cmp	r5, #2
 800260e:	f43f af47 	beq.w	80024a0 <HAL_GPIO_Init+0x6c>
 8002612:	2d12      	cmp	r5, #18
 8002614:	f43f af44 	beq.w	80024a0 <HAL_GPIO_Init+0x6c>
 8002618:	6826      	ldr	r6, [r4, #0]
 800261a:	ea4f 0c43 	mov.w	ip, r3, lsl #1
 800261e:	2703      	movs	r7, #3
 8002620:	fa07 f70c 	lsl.w	r7, r7, ip
 8002624:	ea26 0607 	bic.w	r6, r6, r7
 8002628:	f005 0503 	and.w	r5, r5, #3
 800262c:	fa05 f50c 	lsl.w	r5, r5, ip
 8002630:	4335      	orrs	r5, r6
 8002632:	6025      	str	r5, [r4, #0]
 8002634:	461d      	mov	r5, r3
 8002636:	e753      	b.n	80024e0 <HAL_GPIO_Init+0xac>
 8002638:	bdf0      	pop	{r4, r5, r6, r7, pc}
 800263a:	bf00      	nop
 800263c:	08003de0 	stmdaeq	r0, {r5, r6, r7, r8, sl, fp, ip, sp}
 8002640:	46022000 	strmi	r2, [r2], -r0
 8002644:	002f7f7f 	eoreq	r7, pc, pc, ror pc	; <UNPREDICTABLE>
 8002648:	46020000 	strmi	r0, [r2], -r0

0800264c <SDMMC_GetCmdError>:
 800264c:	4b0b      	ldr	r3, [pc, #44]	; (800267c <SDMMC_GetCmdError+0x30>)
 800264e:	681b      	ldr	r3, [r3, #0]
 8002650:	4a0b      	ldr	r2, [pc, #44]	; (8002680 <SDMMC_GetCmdError+0x34>)
 8002652:	fba2 2303 	umull	r2, r3, r2, r3
 8002656:	0a5b      	lsrs	r3, r3, #9
 8002658:	f241 3288 	movw	r2, #5000	; 0x1388
 800265c:	fb02 f303 	mul.w	r3, r2, r3
 8002660:	461a      	mov	r2, r3
 8002662:	3b01      	subs	r3, #1
 8002664:	b13a      	cbz	r2, 8002676 <SDMMC_GetCmdError+0x2a>
 8002666:	6b42      	ldr	r2, [r0, #52]	; 0x34
 8002668:	f012 0f80 	tst.w	r2, #128	; 0x80
 800266c:	d0f8      	beq.n	8002660 <SDMMC_GetCmdError+0x14>
 800266e:	4b05      	ldr	r3, [pc, #20]	; (8002684 <SDMMC_GetCmdError+0x38>)
 8002670:	6383      	str	r3, [r0, #56]	; 0x38
 8002672:	2000      	movs	r0, #0
 8002674:	4770      	bx	lr
 8002676:	f04f 4000 	mov.w	r0, #2147483648	; 0x80000000
 800267a:	4770      	bx	lr
 800267c:	20000000 	andcs	r0, r0, r0
 8002680:	10624dd3 	ldrdne	r4, [r2], #-211	; 0xffffff2d	; <UNPREDICTABLE>
 8002684:	002000c5 	eoreq	r0, r0, r5, asr #1

08002688 <SDMMC_Init>:
 8002688:	b084      	sub	sp, #16
 800268a:	f10d 0c04 	add.w	ip, sp, #4
 800268e:	e88c 000e 	stmia.w	ip, {r1, r2, r3}
 8002692:	460b      	mov	r3, r1
 8002694:	4313      	orrs	r3, r2
 8002696:	9a03      	ldr	r2, [sp, #12]
 8002698:	4313      	orrs	r3, r2
 800269a:	9a04      	ldr	r2, [sp, #16]
 800269c:	4313      	orrs	r3, r2
 800269e:	9a05      	ldr	r2, [sp, #20]
 80026a0:	4313      	orrs	r3, r2
 80026a2:	6841      	ldr	r1, [r0, #4]
 80026a4:	4a03      	ldr	r2, [pc, #12]	; (80026b4 <SDMMC_Init+0x2c>)
 80026a6:	400a      	ands	r2, r1
 80026a8:	4313      	orrs	r3, r2
 80026aa:	6043      	str	r3, [r0, #4]
 80026ac:	2000      	movs	r0, #0
 80026ae:	b004      	add	sp, #16
 80026b0:	4770      	bx	lr
 80026b2:	bf00      	nop
 80026b4:	ffc02c00 			; <UNDEFINED> instruction: 0xffc02c00

080026b8 <SDMMC_ReadFIFO>:
 80026b8:	f8d0 0080 	ldr.w	r0, [r0, #128]	; 0x80
 80026bc:	4770      	bx	lr

080026be <SDMMC_PowerState_ON>:
 80026be:	6803      	ldr	r3, [r0, #0]
 80026c0:	f043 0303 	orr.w	r3, r3, #3
 80026c4:	6003      	str	r3, [r0, #0]
 80026c6:	2000      	movs	r0, #0
 80026c8:	4770      	bx	lr

080026ca <SDMMC_GetPowerState>:
 80026ca:	6800      	ldr	r0, [r0, #0]
 80026cc:	f000 0003 	and.w	r0, r0, #3
 80026d0:	4770      	bx	lr
	...

080026d4 <SDMMC_SendCommand>:
 80026d4:	680b      	ldr	r3, [r1, #0]
 80026d6:	6083      	str	r3, [r0, #8]
 80026d8:	684b      	ldr	r3, [r1, #4]
 80026da:	688a      	ldr	r2, [r1, #8]
 80026dc:	4313      	orrs	r3, r2
 80026de:	68ca      	ldr	r2, [r1, #12]
 80026e0:	4313      	orrs	r3, r2
 80026e2:	690a      	ldr	r2, [r1, #16]
 80026e4:	4313      	orrs	r3, r2
 80026e6:	68c1      	ldr	r1, [r0, #12]
 80026e8:	4a02      	ldr	r2, [pc, #8]	; (80026f4 <SDMMC_SendCommand+0x20>)
 80026ea:	400a      	ands	r2, r1
 80026ec:	4313      	orrs	r3, r2
 80026ee:	60c3      	str	r3, [r0, #12]
 80026f0:	2000      	movs	r0, #0
 80026f2:	4770      	bx	lr
 80026f4:	fffee0c0 			; <UNDEFINED> instruction: 0xfffee0c0

080026f8 <SDMMC_GetCommandResponse>:
 80026f8:	6900      	ldr	r0, [r0, #16]
 80026fa:	b2c0      	uxtb	r0, r0
 80026fc:	4770      	bx	lr

080026fe <SDMMC_GetResponse>:
 80026fe:	3014      	adds	r0, #20
 8002700:	5840      	ldr	r0, [r0, r1]
 8002702:	4770      	bx	lr

08002704 <SDMMC_ConfigData>:
 8002704:	680b      	ldr	r3, [r1, #0]
 8002706:	6243      	str	r3, [r0, #36]	; 0x24
 8002708:	684b      	ldr	r3, [r1, #4]
 800270a:	6283      	str	r3, [r0, #40]	; 0x28
 800270c:	688b      	ldr	r3, [r1, #8]
 800270e:	68ca      	ldr	r2, [r1, #12]
 8002710:	4313      	orrs	r3, r2
 8002712:	690a      	ldr	r2, [r1, #16]
 8002714:	4313      	orrs	r3, r2
 8002716:	694a      	ldr	r2, [r1, #20]
 8002718:	4313      	orrs	r3, r2
 800271a:	6ac2      	ldr	r2, [r0, #44]	; 0x2c
 800271c:	f022 02ff 	bic.w	r2, r2, #255	; 0xff
 8002720:	4313      	orrs	r3, r2
 8002722:	62c3      	str	r3, [r0, #44]	; 0x2c
 8002724:	2000      	movs	r0, #0
 8002726:	4770      	bx	lr

08002728 <SDMMC_CmdGoIdleState>:
 8002728:	b510      	push	{r4, lr}
 800272a:	b086      	sub	sp, #24
 800272c:	4604      	mov	r4, r0
 800272e:	2300      	movs	r3, #0
 8002730:	9301      	str	r3, [sp, #4]
 8002732:	9302      	str	r3, [sp, #8]
 8002734:	9303      	str	r3, [sp, #12]
 8002736:	9304      	str	r3, [sp, #16]
 8002738:	f44f 5380 	mov.w	r3, #4096	; 0x1000
 800273c:	9305      	str	r3, [sp, #20]
 800273e:	a901      	add	r1, sp, #4
 8002740:	f7ff ffc8 	bl	80026d4 <SDMMC_SendCommand>
 8002744:	4620      	mov	r0, r4
 8002746:	f7ff ff81 	bl	800264c <SDMMC_GetCmdError>
 800274a:	b006      	add	sp, #24
 800274c:	bd10      	pop	{r4, pc}
	...

08002750 <SDMMC_GetCmdResp1>:
 8002750:	b570      	push	{r4, r5, r6, lr}
 8002752:	4605      	mov	r5, r0
 8002754:	460e      	mov	r6, r1
 8002756:	4b51      	ldr	r3, [pc, #324]	; (800289c <SDMMC_GetCmdResp1+0x14c>)
 8002758:	681b      	ldr	r3, [r3, #0]
 800275a:	4951      	ldr	r1, [pc, #324]	; (80028a0 <SDMMC_GetCmdResp1+0x150>)
 800275c:	fba1 1303 	umull	r1, r3, r1, r3
 8002760:	0a5b      	lsrs	r3, r3, #9
 8002762:	fb03 f202 	mul.w	r2, r3, r2
 8002766:	4613      	mov	r3, r2
 8002768:	3a01      	subs	r2, #1
 800276a:	2b00      	cmp	r3, #0
 800276c:	d05e      	beq.n	800282c <SDMMC_GetCmdResp1+0xdc>
 800276e:	6b6c      	ldr	r4, [r5, #52]	; 0x34
 8002770:	4b4c      	ldr	r3, [pc, #304]	; (80028a4 <SDMMC_GetCmdResp1+0x154>)
 8002772:	4023      	ands	r3, r4
 8002774:	2b00      	cmp	r3, #0
 8002776:	d0f6      	beq.n	8002766 <SDMMC_GetCmdResp1+0x16>
 8002778:	f414 5f00 	tst.w	r4, #8192	; 0x2000
 800277c:	d1f3      	bne.n	8002766 <SDMMC_GetCmdResp1+0x16>
 800277e:	6b6b      	ldr	r3, [r5, #52]	; 0x34
 8002780:	f013 0f04 	tst.w	r3, #4
 8002784:	d106      	bne.n	8002794 <SDMMC_GetCmdResp1+0x44>
 8002786:	6b6b      	ldr	r3, [r5, #52]	; 0x34
 8002788:	f013 0f01 	tst.w	r3, #1
 800278c:	d005      	beq.n	800279a <SDMMC_GetCmdResp1+0x4a>
 800278e:	2001      	movs	r0, #1
 8002790:	63a8      	str	r0, [r5, #56]	; 0x38
 8002792:	e04d      	b.n	8002830 <SDMMC_GetCmdResp1+0xe0>
 8002794:	2004      	movs	r0, #4
 8002796:	63a8      	str	r0, [r5, #56]	; 0x38
 8002798:	e04a      	b.n	8002830 <SDMMC_GetCmdResp1+0xe0>
 800279a:	4b43      	ldr	r3, [pc, #268]	; (80028a8 <SDMMC_GetCmdResp1+0x158>)
 800279c:	63ab      	str	r3, [r5, #56]	; 0x38
 800279e:	4628      	mov	r0, r5
 80027a0:	f7ff ffaa 	bl	80026f8 <SDMMC_GetCommandResponse>
 80027a4:	42b0      	cmp	r0, r6
 80027a6:	d001      	beq.n	80027ac <SDMMC_GetCmdResp1+0x5c>
 80027a8:	2001      	movs	r0, #1
 80027aa:	e041      	b.n	8002830 <SDMMC_GetCmdResp1+0xe0>
 80027ac:	2100      	movs	r1, #0
 80027ae:	4628      	mov	r0, r5
 80027b0:	f7ff ffa5 	bl	80026fe <SDMMC_GetResponse>
 80027b4:	4603      	mov	r3, r0
 80027b6:	483d      	ldr	r0, [pc, #244]	; (80028ac <SDMMC_GetCmdResp1+0x15c>)
 80027b8:	4018      	ands	r0, r3
 80027ba:	b3c8      	cbz	r0, 8002830 <SDMMC_GetCmdResp1+0xe0>
 80027bc:	2b00      	cmp	r3, #0
 80027be:	db38      	blt.n	8002832 <SDMMC_GetCmdResp1+0xe2>
 80027c0:	f013 4f80 	tst.w	r3, #1073741824	; 0x40000000
 80027c4:	d138      	bne.n	8002838 <SDMMC_GetCmdResp1+0xe8>
 80027c6:	f013 5f00 	tst.w	r3, #536870912	; 0x20000000
 80027ca:	d137      	bne.n	800283c <SDMMC_GetCmdResp1+0xec>
 80027cc:	f013 5f80 	tst.w	r3, #268435456	; 0x10000000
 80027d0:	d136      	bne.n	8002840 <SDMMC_GetCmdResp1+0xf0>
 80027d2:	f013 6f00 	tst.w	r3, #134217728	; 0x8000000
 80027d6:	d136      	bne.n	8002846 <SDMMC_GetCmdResp1+0xf6>
 80027d8:	f013 6f80 	tst.w	r3, #67108864	; 0x4000000
 80027dc:	d136      	bne.n	800284c <SDMMC_GetCmdResp1+0xfc>
 80027de:	f013 7f80 	tst.w	r3, #16777216	; 0x1000000
 80027e2:	d136      	bne.n	8002852 <SDMMC_GetCmdResp1+0x102>
 80027e4:	f413 0f00 	tst.w	r3, #8388608	; 0x800000
 80027e8:	d136      	bne.n	8002858 <SDMMC_GetCmdResp1+0x108>
 80027ea:	f413 0f80 	tst.w	r3, #4194304	; 0x400000
 80027ee:	d136      	bne.n	800285e <SDMMC_GetCmdResp1+0x10e>
 80027f0:	f413 1f00 	tst.w	r3, #2097152	; 0x200000
 80027f4:	d136      	bne.n	8002864 <SDMMC_GetCmdResp1+0x114>
 80027f6:	f413 1f80 	tst.w	r3, #1048576	; 0x100000
 80027fa:	d136      	bne.n	800286a <SDMMC_GetCmdResp1+0x11a>
 80027fc:	f413 2f80 	tst.w	r3, #262144	; 0x40000
 8002800:	d136      	bne.n	8002870 <SDMMC_GetCmdResp1+0x120>
 8002802:	f413 3f00 	tst.w	r3, #131072	; 0x20000
 8002806:	d136      	bne.n	8002876 <SDMMC_GetCmdResp1+0x126>
 8002808:	f413 3f80 	tst.w	r3, #65536	; 0x10000
 800280c:	d136      	bne.n	800287c <SDMMC_GetCmdResp1+0x12c>
 800280e:	f413 4f00 	tst.w	r3, #32768	; 0x8000
 8002812:	d136      	bne.n	8002882 <SDMMC_GetCmdResp1+0x132>
 8002814:	f413 4f80 	tst.w	r3, #16384	; 0x4000
 8002818:	d136      	bne.n	8002888 <SDMMC_GetCmdResp1+0x138>
 800281a:	f413 5f00 	tst.w	r3, #8192	; 0x2000
 800281e:	d136      	bne.n	800288e <SDMMC_GetCmdResp1+0x13e>
 8002820:	f013 0f08 	tst.w	r3, #8
 8002824:	d036      	beq.n	8002894 <SDMMC_GetCmdResp1+0x144>
 8002826:	f44f 0000 	mov.w	r0, #8388608	; 0x800000
 800282a:	e001      	b.n	8002830 <SDMMC_GetCmdResp1+0xe0>
 800282c:	f04f 4000 	mov.w	r0, #2147483648	; 0x80000000
 8002830:	bd70      	pop	{r4, r5, r6, pc}
 8002832:	f04f 7000 	mov.w	r0, #33554432	; 0x2000000
 8002836:	e7fb      	b.n	8002830 <SDMMC_GetCmdResp1+0xe0>
 8002838:	2040      	movs	r0, #64	; 0x40
 800283a:	e7f9      	b.n	8002830 <SDMMC_GetCmdResp1+0xe0>
 800283c:	2080      	movs	r0, #128	; 0x80
 800283e:	e7f7      	b.n	8002830 <SDMMC_GetCmdResp1+0xe0>
 8002840:	f44f 7080 	mov.w	r0, #256	; 0x100
 8002844:	e7f4      	b.n	8002830 <SDMMC_GetCmdResp1+0xe0>
 8002846:	f44f 7000 	mov.w	r0, #512	; 0x200
 800284a:	e7f1      	b.n	8002830 <SDMMC_GetCmdResp1+0xe0>
 800284c:	f44f 6080 	mov.w	r0, #1024	; 0x400
 8002850:	e7ee      	b.n	8002830 <SDMMC_GetCmdResp1+0xe0>
 8002852:	f44f 6000 	mov.w	r0, #2048	; 0x800
 8002856:	e7eb      	b.n	8002830 <SDMMC_GetCmdResp1+0xe0>
 8002858:	f44f 5080 	mov.w	r0, #4096	; 0x1000
 800285c:	e7e8      	b.n	8002830 <SDMMC_GetCmdResp1+0xe0>
 800285e:	f44f 5000 	mov.w	r0, #8192	; 0x2000
 8002862:	e7e5      	b.n	8002830 <SDMMC_GetCmdResp1+0xe0>
 8002864:	f44f 4080 	mov.w	r0, #16384	; 0x4000
 8002868:	e7e2      	b.n	8002830 <SDMMC_GetCmdResp1+0xe0>
 800286a:	f44f 4000 	mov.w	r0, #32768	; 0x8000
 800286e:	e7df      	b.n	8002830 <SDMMC_GetCmdResp1+0xe0>
 8002870:	f44f 3000 	mov.w	r0, #131072	; 0x20000
 8002874:	e7dc      	b.n	8002830 <SDMMC_GetCmdResp1+0xe0>
 8002876:	f44f 2080 	mov.w	r0, #262144	; 0x40000
 800287a:	e7d9      	b.n	8002830 <SDMMC_GetCmdResp1+0xe0>
 800287c:	f44f 2000 	mov.w	r0, #524288	; 0x80000
 8002880:	e7d6      	b.n	8002830 <SDMMC_GetCmdResp1+0xe0>
 8002882:	f44f 1080 	mov.w	r0, #1048576	; 0x100000
 8002886:	e7d3      	b.n	8002830 <SDMMC_GetCmdResp1+0xe0>
 8002888:	f44f 1000 	mov.w	r0, #2097152	; 0x200000
 800288c:	e7d0      	b.n	8002830 <SDMMC_GetCmdResp1+0xe0>
 800288e:	f44f 0080 	mov.w	r0, #4194304	; 0x400000
 8002892:	e7cd      	b.n	8002830 <SDMMC_GetCmdResp1+0xe0>
 8002894:	f44f 3080 	mov.w	r0, #65536	; 0x10000
 8002898:	e7ca      	b.n	8002830 <SDMMC_GetCmdResp1+0xe0>
 800289a:	bf00      	nop
 800289c:	20000000 	andcs	r0, r0, r0
 80028a0:	10624dd3 	ldrdne	r4, [r2], #-211	; 0xffffff2d	; <UNPREDICTABLE>
 80028a4:	00200045 	eoreq	r0, r0, r5, asr #32
 80028a8:	002000c5 	eoreq	r0, r0, r5, asr #1
 80028ac:	fdffe008 	ldc2l	0, cr14, [pc, #32]!	; 80028d4 <SDMMC_CmdBlockLength+0x24>

080028b0 <SDMMC_CmdBlockLength>:
 80028b0:	b530      	push	{r4, r5, lr}
 80028b2:	b087      	sub	sp, #28
 80028b4:	4604      	mov	r4, r0
 80028b6:	9101      	str	r1, [sp, #4]
 80028b8:	2510      	movs	r5, #16
 80028ba:	9502      	str	r5, [sp, #8]
 80028bc:	f44f 7380 	mov.w	r3, #256	; 0x100
 80028c0:	9303      	str	r3, [sp, #12]
 80028c2:	2300      	movs	r3, #0
 80028c4:	9304      	str	r3, [sp, #16]
 80028c6:	f44f 5380 	mov.w	r3, #4096	; 0x1000
 80028ca:	9305      	str	r3, [sp, #20]
 80028cc:	a901      	add	r1, sp, #4
 80028ce:	f7ff ff01 	bl	80026d4 <SDMMC_SendCommand>
 80028d2:	f241 3288 	movw	r2, #5000	; 0x1388
 80028d6:	4629      	mov	r1, r5
 80028d8:	4620      	mov	r0, r4
 80028da:	f7ff ff39 	bl	8002750 <SDMMC_GetCmdResp1>
 80028de:	b007      	add	sp, #28
 80028e0:	bd30      	pop	{r4, r5, pc}

080028e2 <SDMMC_CmdSelDesel>:
 80028e2:	b530      	push	{r4, r5, lr}
 80028e4:	b087      	sub	sp, #28
 80028e6:	4604      	mov	r4, r0
 80028e8:	9101      	str	r1, [sp, #4]
 80028ea:	2507      	movs	r5, #7
 80028ec:	9502      	str	r5, [sp, #8]
 80028ee:	f44f 7380 	mov.w	r3, #256	; 0x100
 80028f2:	9303      	str	r3, [sp, #12]
 80028f4:	2300      	movs	r3, #0
 80028f6:	9304      	str	r3, [sp, #16]
 80028f8:	f44f 5380 	mov.w	r3, #4096	; 0x1000
 80028fc:	9305      	str	r3, [sp, #20]
 80028fe:	a901      	add	r1, sp, #4
 8002900:	f7ff fee8 	bl	80026d4 <SDMMC_SendCommand>
 8002904:	f241 3288 	movw	r2, #5000	; 0x1388
 8002908:	4629      	mov	r1, r5
 800290a:	4620      	mov	r0, r4
 800290c:	f7ff ff20 	bl	8002750 <SDMMC_GetCmdResp1>
 8002910:	b007      	add	sp, #28
 8002912:	bd30      	pop	{r4, r5, pc}

08002914 <SDMMC_CmdAppCommand>:
 8002914:	b530      	push	{r4, r5, lr}
 8002916:	b087      	sub	sp, #28
 8002918:	4604      	mov	r4, r0
 800291a:	9101      	str	r1, [sp, #4]
 800291c:	2537      	movs	r5, #55	; 0x37
 800291e:	9502      	str	r5, [sp, #8]
 8002920:	f44f 7380 	mov.w	r3, #256	; 0x100
 8002924:	9303      	str	r3, [sp, #12]
 8002926:	2300      	movs	r3, #0
 8002928:	9304      	str	r3, [sp, #16]
 800292a:	f44f 5380 	mov.w	r3, #4096	; 0x1000
 800292e:	9305      	str	r3, [sp, #20]
 8002930:	a901      	add	r1, sp, #4
 8002932:	f7ff fecf 	bl	80026d4 <SDMMC_SendCommand>
 8002936:	f241 3288 	movw	r2, #5000	; 0x1388
 800293a:	4629      	mov	r1, r5
 800293c:	4620      	mov	r0, r4
 800293e:	f7ff ff07 	bl	8002750 <SDMMC_GetCmdResp1>
 8002942:	b007      	add	sp, #28
 8002944:	bd30      	pop	{r4, r5, pc}

08002946 <SDMMC_CmdBusWidth>:
 8002946:	b530      	push	{r4, r5, lr}
 8002948:	b087      	sub	sp, #28
 800294a:	4604      	mov	r4, r0
 800294c:	9101      	str	r1, [sp, #4]
 800294e:	2506      	movs	r5, #6
 8002950:	9502      	str	r5, [sp, #8]
 8002952:	f44f 7380 	mov.w	r3, #256	; 0x100
 8002956:	9303      	str	r3, [sp, #12]
 8002958:	2300      	movs	r3, #0
 800295a:	9304      	str	r3, [sp, #16]
 800295c:	f44f 5380 	mov.w	r3, #4096	; 0x1000
 8002960:	9305      	str	r3, [sp, #20]
 8002962:	a901      	add	r1, sp, #4
 8002964:	f7ff feb6 	bl	80026d4 <SDMMC_SendCommand>
 8002968:	f241 3288 	movw	r2, #5000	; 0x1388
 800296c:	4629      	mov	r1, r5
 800296e:	4620      	mov	r0, r4
 8002970:	f7ff feee 	bl	8002750 <SDMMC_GetCmdResp1>
 8002974:	b007      	add	sp, #28
 8002976:	bd30      	pop	{r4, r5, pc}

08002978 <SDMMC_CmdSendSCR>:
 8002978:	b530      	push	{r4, r5, lr}
 800297a:	b087      	sub	sp, #28
 800297c:	4604      	mov	r4, r0
 800297e:	2300      	movs	r3, #0
 8002980:	9301      	str	r3, [sp, #4]
 8002982:	2533      	movs	r5, #51	; 0x33
 8002984:	9502      	str	r5, [sp, #8]
 8002986:	f44f 7280 	mov.w	r2, #256	; 0x100
 800298a:	9203      	str	r2, [sp, #12]
 800298c:	9304      	str	r3, [sp, #16]
 800298e:	f44f 5380 	mov.w	r3, #4096	; 0x1000
 8002992:	9305      	str	r3, [sp, #20]
 8002994:	a901      	add	r1, sp, #4
 8002996:	f7ff fe9d 	bl	80026d4 <SDMMC_SendCommand>
 800299a:	f241 3288 	movw	r2, #5000	; 0x1388
 800299e:	4629      	mov	r1, r5
 80029a0:	4620      	mov	r0, r4
 80029a2:	f7ff fed5 	bl	8002750 <SDMMC_GetCmdResp1>
 80029a6:	b007      	add	sp, #28
 80029a8:	bd30      	pop	{r4, r5, pc}

080029aa <SDMMC_CmdSendStatus>:
 80029aa:	b530      	push	{r4, r5, lr}
 80029ac:	b087      	sub	sp, #28
 80029ae:	4604      	mov	r4, r0
 80029b0:	9101      	str	r1, [sp, #4]
 80029b2:	250d      	movs	r5, #13
 80029b4:	9502      	str	r5, [sp, #8]
 80029b6:	f44f 7380 	mov.w	r3, #256	; 0x100
 80029ba:	9303      	str	r3, [sp, #12]
 80029bc:	2300      	movs	r3, #0
 80029be:	9304      	str	r3, [sp, #16]
 80029c0:	f44f 5380 	mov.w	r3, #4096	; 0x1000
 80029c4:	9305      	str	r3, [sp, #20]
 80029c6:	a901      	add	r1, sp, #4
 80029c8:	f7ff fe84 	bl	80026d4 <SDMMC_SendCommand>
 80029cc:	f241 3288 	movw	r2, #5000	; 0x1388
 80029d0:	4629      	mov	r1, r5
 80029d2:	4620      	mov	r0, r4
 80029d4:	f7ff febc 	bl	8002750 <SDMMC_GetCmdResp1>
 80029d8:	b007      	add	sp, #28
 80029da:	bd30      	pop	{r4, r5, pc}

080029dc <SDMMC_CmdStatusRegister>:
 80029dc:	b530      	push	{r4, r5, lr}
 80029de:	b087      	sub	sp, #28
 80029e0:	4604      	mov	r4, r0
 80029e2:	2300      	movs	r3, #0
 80029e4:	9301      	str	r3, [sp, #4]
 80029e6:	250d      	movs	r5, #13
 80029e8:	9502      	str	r5, [sp, #8]
 80029ea:	f44f 7280 	mov.w	r2, #256	; 0x100
 80029ee:	9203      	str	r2, [sp, #12]
 80029f0:	9304      	str	r3, [sp, #16]
 80029f2:	f44f 5380 	mov.w	r3, #4096	; 0x1000
 80029f6:	9305      	str	r3, [sp, #20]
 80029f8:	a901      	add	r1, sp, #4
 80029fa:	f7ff fe6b 	bl	80026d4 <SDMMC_SendCommand>
 80029fe:	f241 3288 	movw	r2, #5000	; 0x1388
 8002a02:	4629      	mov	r1, r5
 8002a04:	4620      	mov	r0, r4
 8002a06:	f7ff fea3 	bl	8002750 <SDMMC_GetCmdResp1>
 8002a0a:	b007      	add	sp, #28
 8002a0c:	bd30      	pop	{r4, r5, pc}
	...

08002a10 <SDMMC_GetCmdResp2>:
 8002a10:	4601      	mov	r1, r0
 8002a12:	4b14      	ldr	r3, [pc, #80]	; (8002a64 <SDMMC_GetCmdResp2+0x54>)
 8002a14:	681b      	ldr	r3, [r3, #0]
 8002a16:	4a14      	ldr	r2, [pc, #80]	; (8002a68 <SDMMC_GetCmdResp2+0x58>)
 8002a18:	fba2 2303 	umull	r2, r3, r2, r3
 8002a1c:	0a5b      	lsrs	r3, r3, #9
 8002a1e:	f241 3288 	movw	r2, #5000	; 0x1388
 8002a22:	fb02 f303 	mul.w	r3, r2, r3
 8002a26:	461a      	mov	r2, r3
 8002a28:	3b01      	subs	r3, #1
 8002a2a:	b1ba      	cbz	r2, 8002a5c <SDMMC_GetCmdResp2+0x4c>
 8002a2c:	6b4a      	ldr	r2, [r1, #52]	; 0x34
 8002a2e:	f012 0f45 	tst.w	r2, #69	; 0x45
 8002a32:	d0f8      	beq.n	8002a26 <SDMMC_GetCmdResp2+0x16>
 8002a34:	f412 5f00 	tst.w	r2, #8192	; 0x2000
 8002a38:	d1f5      	bne.n	8002a26 <SDMMC_GetCmdResp2+0x16>
 8002a3a:	6b4b      	ldr	r3, [r1, #52]	; 0x34
 8002a3c:	f013 0f04 	tst.w	r3, #4
 8002a40:	d106      	bne.n	8002a50 <SDMMC_GetCmdResp2+0x40>
 8002a42:	6b48      	ldr	r0, [r1, #52]	; 0x34
 8002a44:	f010 0001 	ands.w	r0, r0, #1
 8002a48:	d105      	bne.n	8002a56 <SDMMC_GetCmdResp2+0x46>
 8002a4a:	4b08      	ldr	r3, [pc, #32]	; (8002a6c <SDMMC_GetCmdResp2+0x5c>)
 8002a4c:	638b      	str	r3, [r1, #56]	; 0x38
 8002a4e:	4770      	bx	lr
 8002a50:	2004      	movs	r0, #4
 8002a52:	6388      	str	r0, [r1, #56]	; 0x38
 8002a54:	4770      	bx	lr
 8002a56:	2001      	movs	r0, #1
 8002a58:	6388      	str	r0, [r1, #56]	; 0x38
 8002a5a:	4770      	bx	lr
 8002a5c:	f04f 4000 	mov.w	r0, #2147483648	; 0x80000000
 8002a60:	4770      	bx	lr
 8002a62:	bf00      	nop
 8002a64:	20000000 	andcs	r0, r0, r0
 8002a68:	10624dd3 	ldrdne	r4, [r2], #-211	; 0xffffff2d	; <UNPREDICTABLE>
 8002a6c:	002000c5 	eoreq	r0, r0, r5, asr #1

08002a70 <SDMMC_CmdSendCID>:
 8002a70:	b510      	push	{r4, lr}
 8002a72:	b086      	sub	sp, #24
 8002a74:	4604      	mov	r4, r0
 8002a76:	2300      	movs	r3, #0
 8002a78:	9301      	str	r3, [sp, #4]
 8002a7a:	2202      	movs	r2, #2
 8002a7c:	9202      	str	r2, [sp, #8]
 8002a7e:	f44f 7240 	mov.w	r2, #768	; 0x300
 8002a82:	9203      	str	r2, [sp, #12]
 8002a84:	9304      	str	r3, [sp, #16]
 8002a86:	f44f 5380 	mov.w	r3, #4096	; 0x1000
 8002a8a:	9305      	str	r3, [sp, #20]
 8002a8c:	a901      	add	r1, sp, #4
 8002a8e:	f7ff fe21 	bl	80026d4 <SDMMC_SendCommand>
 8002a92:	4620      	mov	r0, r4
 8002a94:	f7ff ffbc 	bl	8002a10 <SDMMC_GetCmdResp2>
 8002a98:	b006      	add	sp, #24
 8002a9a:	bd10      	pop	{r4, pc}

08002a9c <SDMMC_CmdSendCSD>:
 8002a9c:	b510      	push	{r4, lr}
 8002a9e:	b086      	sub	sp, #24
 8002aa0:	4604      	mov	r4, r0
 8002aa2:	9101      	str	r1, [sp, #4]
 8002aa4:	2309      	movs	r3, #9
 8002aa6:	9302      	str	r3, [sp, #8]
 8002aa8:	f44f 7340 	mov.w	r3, #768	; 0x300
 8002aac:	9303      	str	r3, [sp, #12]
 8002aae:	2300      	movs	r3, #0
 8002ab0:	9304      	str	r3, [sp, #16]
 8002ab2:	f44f 5380 	mov.w	r3, #4096	; 0x1000
 8002ab6:	9305      	str	r3, [sp, #20]
 8002ab8:	a901      	add	r1, sp, #4
 8002aba:	f7ff fe0b 	bl	80026d4 <SDMMC_SendCommand>
 8002abe:	4620      	mov	r0, r4
 8002ac0:	f7ff ffa6 	bl	8002a10 <SDMMC_GetCmdResp2>
 8002ac4:	b006      	add	sp, #24
 8002ac6:	bd10      	pop	{r4, pc}

08002ac8 <SDMMC_GetCmdResp3>:
 8002ac8:	4601      	mov	r1, r0
 8002aca:	4b10      	ldr	r3, [pc, #64]	; (8002b0c <SDMMC_GetCmdResp3+0x44>)
 8002acc:	681b      	ldr	r3, [r3, #0]
 8002ace:	4a10      	ldr	r2, [pc, #64]	; (8002b10 <SDMMC_GetCmdResp3+0x48>)
 8002ad0:	fba2 2303 	umull	r2, r3, r2, r3
 8002ad4:	0a5b      	lsrs	r3, r3, #9
 8002ad6:	f241 3288 	movw	r2, #5000	; 0x1388
 8002ada:	fb02 f303 	mul.w	r3, r2, r3
 8002ade:	461a      	mov	r2, r3
 8002ae0:	3b01      	subs	r3, #1
 8002ae2:	b182      	cbz	r2, 8002b06 <SDMMC_GetCmdResp3+0x3e>
 8002ae4:	6b4a      	ldr	r2, [r1, #52]	; 0x34
 8002ae6:	f012 0f45 	tst.w	r2, #69	; 0x45
 8002aea:	d0f8      	beq.n	8002ade <SDMMC_GetCmdResp3+0x16>
 8002aec:	f412 5f00 	tst.w	r2, #8192	; 0x2000
 8002af0:	d1f5      	bne.n	8002ade <SDMMC_GetCmdResp3+0x16>
 8002af2:	6b48      	ldr	r0, [r1, #52]	; 0x34
 8002af4:	f010 0004 	ands.w	r0, r0, #4
 8002af8:	d102      	bne.n	8002b00 <SDMMC_GetCmdResp3+0x38>
 8002afa:	4b06      	ldr	r3, [pc, #24]	; (8002b14 <SDMMC_GetCmdResp3+0x4c>)
 8002afc:	638b      	str	r3, [r1, #56]	; 0x38
 8002afe:	4770      	bx	lr
 8002b00:	2004      	movs	r0, #4
 8002b02:	6388      	str	r0, [r1, #56]	; 0x38
 8002b04:	4770      	bx	lr
 8002b06:	f04f 4000 	mov.w	r0, #2147483648	; 0x80000000
 8002b0a:	4770      	bx	lr
 8002b0c:	20000000 	andcs	r0, r0, r0
 8002b10:	10624dd3 	ldrdne	r4, [r2], #-211	; 0xffffff2d	; <UNPREDICTABLE>
 8002b14:	002000c5 	eoreq	r0, r0, r5, asr #1

08002b18 <SDMMC_CmdAppOperCommand>:
 8002b18:	b510      	push	{r4, lr}
 8002b1a:	b086      	sub	sp, #24
 8002b1c:	4604      	mov	r4, r0
 8002b1e:	9101      	str	r1, [sp, #4]
 8002b20:	2329      	movs	r3, #41	; 0x29
 8002b22:	9302      	str	r3, [sp, #8]
 8002b24:	f44f 7380 	mov.w	r3, #256	; 0x100
 8002b28:	9303      	str	r3, [sp, #12]
 8002b2a:	2300      	movs	r3, #0
 8002b2c:	9304      	str	r3, [sp, #16]
 8002b2e:	f44f 5380 	mov.w	r3, #4096	; 0x1000
 8002b32:	9305      	str	r3, [sp, #20]
 8002b34:	a901      	add	r1, sp, #4
 8002b36:	f7ff fdcd 	bl	80026d4 <SDMMC_SendCommand>
 8002b3a:	4620      	mov	r0, r4
 8002b3c:	f7ff ffc4 	bl	8002ac8 <SDMMC_GetCmdResp3>
 8002b40:	b006      	add	sp, #24
 8002b42:	bd10      	pop	{r4, pc}

08002b44 <SDMMC_GetCmdResp6>:
 8002b44:	b5f8      	push	{r3, r4, r5, r6, r7, lr}
 8002b46:	4605      	mov	r5, r0
 8002b48:	460e      	mov	r6, r1
 8002b4a:	4617      	mov	r7, r2
 8002b4c:	4b23      	ldr	r3, [pc, #140]	; (8002bdc <SDMMC_GetCmdResp6+0x98>)
 8002b4e:	681b      	ldr	r3, [r3, #0]
 8002b50:	4a23      	ldr	r2, [pc, #140]	; (8002be0 <SDMMC_GetCmdResp6+0x9c>)
 8002b52:	fba2 2303 	umull	r2, r3, r2, r3
 8002b56:	0a5b      	lsrs	r3, r3, #9
 8002b58:	f241 3288 	movw	r2, #5000	; 0x1388
 8002b5c:	fb02 f303 	mul.w	r3, r2, r3
 8002b60:	461a      	mov	r2, r3
 8002b62:	3b01      	subs	r3, #1
 8002b64:	b38a      	cbz	r2, 8002bca <SDMMC_GetCmdResp6+0x86>
 8002b66:	6b6c      	ldr	r4, [r5, #52]	; 0x34
 8002b68:	f014 0f45 	tst.w	r4, #69	; 0x45
 8002b6c:	d0f8      	beq.n	8002b60 <SDMMC_GetCmdResp6+0x1c>
 8002b6e:	f414 5f00 	tst.w	r4, #8192	; 0x2000
 8002b72:	d1f5      	bne.n	8002b60 <SDMMC_GetCmdResp6+0x1c>
 8002b74:	6b6b      	ldr	r3, [r5, #52]	; 0x34
 8002b76:	f013 0f04 	tst.w	r3, #4
 8002b7a:	d106      	bne.n	8002b8a <SDMMC_GetCmdResp6+0x46>
 8002b7c:	6b6b      	ldr	r3, [r5, #52]	; 0x34
 8002b7e:	f013 0f01 	tst.w	r3, #1
 8002b82:	d005      	beq.n	8002b90 <SDMMC_GetCmdResp6+0x4c>
 8002b84:	2001      	movs	r0, #1
 8002b86:	63a8      	str	r0, [r5, #56]	; 0x38
 8002b88:	e021      	b.n	8002bce <SDMMC_GetCmdResp6+0x8a>
 8002b8a:	2004      	movs	r0, #4
 8002b8c:	63a8      	str	r0, [r5, #56]	; 0x38
 8002b8e:	e01e      	b.n	8002bce <SDMMC_GetCmdResp6+0x8a>
 8002b90:	4628      	mov	r0, r5
 8002b92:	f7ff fdb1 	bl	80026f8 <SDMMC_GetCommandResponse>
 8002b96:	42b0      	cmp	r0, r6
 8002b98:	d001      	beq.n	8002b9e <SDMMC_GetCmdResp6+0x5a>
 8002b9a:	2001      	movs	r0, #1
 8002b9c:	e017      	b.n	8002bce <SDMMC_GetCmdResp6+0x8a>
 8002b9e:	4b11      	ldr	r3, [pc, #68]	; (8002be4 <SDMMC_GetCmdResp6+0xa0>)
 8002ba0:	63ab      	str	r3, [r5, #56]	; 0x38
 8002ba2:	2100      	movs	r1, #0
 8002ba4:	4628      	mov	r0, r5
 8002ba6:	f7ff fdaa 	bl	80026fe <SDMMC_GetResponse>
 8002baa:	4603      	mov	r3, r0
 8002bac:	f410 4060 	ands.w	r0, r0, #57344	; 0xe000
 8002bb0:	d008      	beq.n	8002bc4 <SDMMC_GetCmdResp6+0x80>
 8002bb2:	f413 4f80 	tst.w	r3, #16384	; 0x4000
 8002bb6:	d10b      	bne.n	8002bd0 <SDMMC_GetCmdResp6+0x8c>
 8002bb8:	f413 4f00 	tst.w	r3, #32768	; 0x8000
 8002bbc:	d00b      	beq.n	8002bd6 <SDMMC_GetCmdResp6+0x92>
 8002bbe:	f44f 5080 	mov.w	r0, #4096	; 0x1000
 8002bc2:	e004      	b.n	8002bce <SDMMC_GetCmdResp6+0x8a>
 8002bc4:	0c1b      	lsrs	r3, r3, #16
 8002bc6:	803b      	strh	r3, [r7, #0]
 8002bc8:	e001      	b.n	8002bce <SDMMC_GetCmdResp6+0x8a>
 8002bca:	f04f 4000 	mov.w	r0, #2147483648	; 0x80000000
 8002bce:	bdf8      	pop	{r3, r4, r5, r6, r7, pc}
 8002bd0:	f44f 5000 	mov.w	r0, #8192	; 0x2000
 8002bd4:	e7fb      	b.n	8002bce <SDMMC_GetCmdResp6+0x8a>
 8002bd6:	f44f 3080 	mov.w	r0, #65536	; 0x10000
 8002bda:	e7f8      	b.n	8002bce <SDMMC_GetCmdResp6+0x8a>
 8002bdc:	20000000 	andcs	r0, r0, r0
 8002be0:	10624dd3 	ldrdne	r4, [r2], #-211	; 0xffffff2d	; <UNPREDICTABLE>
 8002be4:	002000c5 	eoreq	r0, r0, r5, asr #1

08002be8 <SDMMC_CmdSetRelAdd>:
 8002be8:	b570      	push	{r4, r5, r6, lr}
 8002bea:	b086      	sub	sp, #24
 8002bec:	4604      	mov	r4, r0
 8002bee:	460d      	mov	r5, r1
 8002bf0:	2300      	movs	r3, #0
 8002bf2:	9301      	str	r3, [sp, #4]
 8002bf4:	2603      	movs	r6, #3
 8002bf6:	9602      	str	r6, [sp, #8]
 8002bf8:	f44f 7280 	mov.w	r2, #256	; 0x100
 8002bfc:	9203      	str	r2, [sp, #12]
 8002bfe:	9304      	str	r3, [sp, #16]
 8002c00:	f44f 5380 	mov.w	r3, #4096	; 0x1000
 8002c04:	9305      	str	r3, [sp, #20]
 8002c06:	a901      	add	r1, sp, #4
 8002c08:	f7ff fd64 	bl	80026d4 <SDMMC_SendCommand>
 8002c0c:	462a      	mov	r2, r5
 8002c0e:	4631      	mov	r1, r6
 8002c10:	4620      	mov	r0, r4
 8002c12:	f7ff ff97 	bl	8002b44 <SDMMC_GetCmdResp6>
 8002c16:	b006      	add	sp, #24
 8002c18:	bd70      	pop	{r4, r5, r6, pc}
	...

08002c1c <SDMMC_GetCmdResp7>:
 8002c1c:	4601      	mov	r1, r0
 8002c1e:	4b16      	ldr	r3, [pc, #88]	; (8002c78 <SDMMC_GetCmdResp7+0x5c>)
 8002c20:	681b      	ldr	r3, [r3, #0]
 8002c22:	4a16      	ldr	r2, [pc, #88]	; (8002c7c <SDMMC_GetCmdResp7+0x60>)
 8002c24:	fba2 2303 	umull	r2, r3, r2, r3
 8002c28:	0a5b      	lsrs	r3, r3, #9
 8002c2a:	f241 3288 	movw	r2, #5000	; 0x1388
 8002c2e:	fb02 f303 	mul.w	r3, r2, r3
 8002c32:	461a      	mov	r2, r3
 8002c34:	3b01      	subs	r3, #1
 8002c36:	b1e2      	cbz	r2, 8002c72 <SDMMC_GetCmdResp7+0x56>
 8002c38:	6b4a      	ldr	r2, [r1, #52]	; 0x34
 8002c3a:	f012 0f45 	tst.w	r2, #69	; 0x45
 8002c3e:	d0f8      	beq.n	8002c32 <SDMMC_GetCmdResp7+0x16>
 8002c40:	f412 5f00 	tst.w	r2, #8192	; 0x2000
 8002c44:	d1f5      	bne.n	8002c32 <SDMMC_GetCmdResp7+0x16>
 8002c46:	6b4b      	ldr	r3, [r1, #52]	; 0x34
 8002c48:	f013 0f04 	tst.w	r3, #4
 8002c4c:	d10b      	bne.n	8002c66 <SDMMC_GetCmdResp7+0x4a>
 8002c4e:	6b4b      	ldr	r3, [r1, #52]	; 0x34
 8002c50:	f013 0301 	ands.w	r3, r3, #1
 8002c54:	d10a      	bne.n	8002c6c <SDMMC_GetCmdResp7+0x50>
 8002c56:	6b48      	ldr	r0, [r1, #52]	; 0x34
 8002c58:	f010 0040 	ands.w	r0, r0, #64	; 0x40
 8002c5c:	d00b      	beq.n	8002c76 <SDMMC_GetCmdResp7+0x5a>
 8002c5e:	2240      	movs	r2, #64	; 0x40
 8002c60:	638a      	str	r2, [r1, #56]	; 0x38
 8002c62:	4618      	mov	r0, r3
 8002c64:	4770      	bx	lr
 8002c66:	2004      	movs	r0, #4
 8002c68:	6388      	str	r0, [r1, #56]	; 0x38
 8002c6a:	4770      	bx	lr
 8002c6c:	2001      	movs	r0, #1
 8002c6e:	6388      	str	r0, [r1, #56]	; 0x38
 8002c70:	4770      	bx	lr
 8002c72:	f04f 4000 	mov.w	r0, #2147483648	; 0x80000000
 8002c76:	4770      	bx	lr
 8002c78:	20000000 	andcs	r0, r0, r0
 8002c7c:	10624dd3 	ldrdne	r4, [r2], #-211	; 0xffffff2d	; <UNPREDICTABLE>

08002c80 <SDMMC_CmdOperCond>:
 8002c80:	b510      	push	{r4, lr}
 8002c82:	b086      	sub	sp, #24
 8002c84:	4604      	mov	r4, r0
 8002c86:	f44f 73d5 	mov.w	r3, #426	; 0x1aa
 8002c8a:	9301      	str	r3, [sp, #4]
 8002c8c:	2308      	movs	r3, #8
 8002c8e:	9302      	str	r3, [sp, #8]
 8002c90:	f44f 7380 	mov.w	r3, #256	; 0x100
 8002c94:	9303      	str	r3, [sp, #12]
 8002c96:	2300      	movs	r3, #0
 8002c98:	9304      	str	r3, [sp, #16]
 8002c9a:	f44f 5380 	mov.w	r3, #4096	; 0x1000
 8002c9e:	9305      	str	r3, [sp, #20]
 8002ca0:	a901      	add	r1, sp, #4
 8002ca2:	f7ff fd17 	bl	80026d4 <SDMMC_SendCommand>
 8002ca6:	4620      	mov	r0, r4
 8002ca8:	f7ff ffb8 	bl	8002c1c <SDMMC_GetCmdResp7>
 8002cac:	b006      	add	sp, #24
 8002cae:	bd10      	pop	{r4, pc}

08002cb0 <SD_PowerON>:
 8002cb0:	b570      	push	{r4, r5, r6, lr}
 8002cb2:	b082      	sub	sp, #8
 8002cb4:	4604      	mov	r4, r0
 8002cb6:	2300      	movs	r3, #0
 8002cb8:	9301      	str	r3, [sp, #4]
 8002cba:	6800      	ldr	r0, [r0, #0]
 8002cbc:	f7ff fd34 	bl	8002728 <SDMMC_CmdGoIdleState>
 8002cc0:	4605      	mov	r5, r0
 8002cc2:	b110      	cbz	r0, 8002cca <SD_PowerON+0x1a>
 8002cc4:	4628      	mov	r0, r5
 8002cc6:	b002      	add	sp, #8
 8002cc8:	bd70      	pop	{r4, r5, r6, pc}
 8002cca:	6820      	ldr	r0, [r4, #0]
 8002ccc:	f7ff ffd8 	bl	8002c80 <SDMMC_CmdOperCond>
 8002cd0:	f1b0 4f00 	cmp.w	r0, #2147483648	; 0x80000000
 8002cd4:	d007      	beq.n	8002ce6 <SD_PowerON+0x36>
 8002cd6:	2301      	movs	r3, #1
 8002cd8:	63e3      	str	r3, [r4, #60]	; 0x3c
 8002cda:	6be3      	ldr	r3, [r4, #60]	; 0x3c
 8002cdc:	2b01      	cmp	r3, #1
 8002cde:	d00b      	beq.n	8002cf8 <SD_PowerON+0x48>
 8002ce0:	462e      	mov	r6, r5
 8002ce2:	4628      	mov	r0, r5
 8002ce4:	e014      	b.n	8002d10 <SD_PowerON+0x60>
 8002ce6:	2300      	movs	r3, #0
 8002ce8:	63e3      	str	r3, [r4, #60]	; 0x3c
 8002cea:	6820      	ldr	r0, [r4, #0]
 8002cec:	f7ff fd1c 	bl	8002728 <SDMMC_CmdGoIdleState>
 8002cf0:	2800      	cmp	r0, #0
 8002cf2:	d0f2      	beq.n	8002cda <SD_PowerON+0x2a>
 8002cf4:	4605      	mov	r5, r0
 8002cf6:	e7e5      	b.n	8002cc4 <SD_PowerON+0x14>
 8002cf8:	2100      	movs	r1, #0
 8002cfa:	6820      	ldr	r0, [r4, #0]
 8002cfc:	f7ff fe0a 	bl	8002914 <SDMMC_CmdAppCommand>
 8002d00:	2800      	cmp	r0, #0
 8002d02:	d0ed      	beq.n	8002ce0 <SD_PowerON+0x30>
 8002d04:	f04f 5580 	mov.w	r5, #268435456	; 0x10000000
 8002d08:	e7dc      	b.n	8002cc4 <SD_PowerON+0x14>
 8002d0a:	9b01      	ldr	r3, [sp, #4]
 8002d0c:	3301      	adds	r3, #1
 8002d0e:	9301      	str	r3, [sp, #4]
 8002d10:	9a01      	ldr	r2, [sp, #4]
 8002d12:	f64f 73fe 	movw	r3, #65534	; 0xfffe
 8002d16:	429a      	cmp	r2, r3
 8002d18:	d813      	bhi.n	8002d42 <SD_PowerON+0x92>
 8002d1a:	b996      	cbnz	r6, 8002d42 <SD_PowerON+0x92>
 8002d1c:	2100      	movs	r1, #0
 8002d1e:	6820      	ldr	r0, [r4, #0]
 8002d20:	f7ff fdf8 	bl	8002914 <SDMMC_CmdAppCommand>
 8002d24:	b9d0      	cbnz	r0, 8002d5c <SD_PowerON+0xac>
 8002d26:	4912      	ldr	r1, [pc, #72]	; (8002d70 <SD_PowerON+0xc0>)
 8002d28:	6820      	ldr	r0, [r4, #0]
 8002d2a:	f7ff fef5 	bl	8002b18 <SDMMC_CmdAppOperCommand>
 8002d2e:	4606      	mov	r6, r0
 8002d30:	b9b0      	cbnz	r0, 8002d60 <SD_PowerON+0xb0>
 8002d32:	2100      	movs	r1, #0
 8002d34:	6820      	ldr	r0, [r4, #0]
 8002d36:	f7ff fce2 	bl	80026fe <SDMMC_GetResponse>
 8002d3a:	0fc3      	lsrs	r3, r0, #31
 8002d3c:	d0e5      	beq.n	8002d0a <SD_PowerON+0x5a>
 8002d3e:	461e      	mov	r6, r3
 8002d40:	e7e3      	b.n	8002d0a <SD_PowerON+0x5a>
 8002d42:	9a01      	ldr	r2, [sp, #4]
 8002d44:	f64f 73fe 	movw	r3, #65534	; 0xfffe
 8002d48:	429a      	cmp	r2, r3
 8002d4a:	d80c      	bhi.n	8002d66 <SD_PowerON+0xb6>
 8002d4c:	2300      	movs	r3, #0
 8002d4e:	63a3      	str	r3, [r4, #56]	; 0x38
 8002d50:	f010 4380 	ands.w	r3, r0, #1073741824	; 0x40000000
 8002d54:	d00a      	beq.n	8002d6c <SD_PowerON+0xbc>
 8002d56:	2301      	movs	r3, #1
 8002d58:	63a3      	str	r3, [r4, #56]	; 0x38
 8002d5a:	e7b3      	b.n	8002cc4 <SD_PowerON+0x14>
 8002d5c:	4605      	mov	r5, r0
 8002d5e:	e7b1      	b.n	8002cc4 <SD_PowerON+0x14>
 8002d60:	f04f 5580 	mov.w	r5, #268435456	; 0x10000000
 8002d64:	e7ae      	b.n	8002cc4 <SD_PowerON+0x14>
 8002d66:	f04f 7580 	mov.w	r5, #16777216	; 0x1000000
 8002d6a:	e7ab      	b.n	8002cc4 <SD_PowerON+0x14>
 8002d6c:	461d      	mov	r5, r3
 8002d6e:	e7a9      	b.n	8002cc4 <SD_PowerON+0x14>
 8002d70:	c1100000 	tstgt	r0, r0

08002d74 <SD_SendSDStatus>:
 8002d74:	b5f0      	push	{r4, r5, r6, r7, lr}
 8002d76:	b087      	sub	sp, #28
 8002d78:	4605      	mov	r5, r0
 8002d7a:	460e      	mov	r6, r1
 8002d7c:	f7fd fe7c 	bl	8000a78 <HAL_GetTick>
 8002d80:	4607      	mov	r7, r0
 8002d82:	2100      	movs	r1, #0
 8002d84:	6828      	ldr	r0, [r5, #0]
 8002d86:	f7ff fcba 	bl	80026fe <SDMMC_GetResponse>
 8002d8a:	f010 7f00 	tst.w	r0, #33554432	; 0x2000000
 8002d8e:	d164      	bne.n	8002e5a <SD_SendSDStatus+0xe6>
 8002d90:	2140      	movs	r1, #64	; 0x40
 8002d92:	6828      	ldr	r0, [r5, #0]
 8002d94:	f7ff fd8c 	bl	80028b0 <SDMMC_CmdBlockLength>
 8002d98:	4603      	mov	r3, r0
 8002d9a:	b110      	cbz	r0, 8002da2 <SD_SendSDStatus+0x2e>
 8002d9c:	6b6a      	ldr	r2, [r5, #52]	; 0x34
 8002d9e:	636a      	str	r2, [r5, #52]	; 0x34
 8002da0:	e05d      	b.n	8002e5e <SD_SendSDStatus+0xea>
 8002da2:	6c69      	ldr	r1, [r5, #68]	; 0x44
 8002da4:	0409      	lsls	r1, r1, #16
 8002da6:	6828      	ldr	r0, [r5, #0]
 8002da8:	f7ff fdb4 	bl	8002914 <SDMMC_CmdAppCommand>
 8002dac:	4603      	mov	r3, r0
 8002dae:	b110      	cbz	r0, 8002db6 <SD_SendSDStatus+0x42>
 8002db0:	6b6a      	ldr	r2, [r5, #52]	; 0x34
 8002db2:	636a      	str	r2, [r5, #52]	; 0x34
 8002db4:	e053      	b.n	8002e5e <SD_SendSDStatus+0xea>
 8002db6:	f04f 33ff 	mov.w	r3, #4294967295	; 0xffffffff
 8002dba:	9300      	str	r3, [sp, #0]
 8002dbc:	2340      	movs	r3, #64	; 0x40
 8002dbe:	9301      	str	r3, [sp, #4]
 8002dc0:	2360      	movs	r3, #96	; 0x60
 8002dc2:	9302      	str	r3, [sp, #8]
 8002dc4:	2302      	movs	r3, #2
 8002dc6:	9303      	str	r3, [sp, #12]
 8002dc8:	2300      	movs	r3, #0
 8002dca:	9304      	str	r3, [sp, #16]
 8002dcc:	2301      	movs	r3, #1
 8002dce:	9305      	str	r3, [sp, #20]
 8002dd0:	4669      	mov	r1, sp
 8002dd2:	6828      	ldr	r0, [r5, #0]
 8002dd4:	f7ff fc96 	bl	8002704 <SDMMC_ConfigData>
 8002dd8:	6828      	ldr	r0, [r5, #0]
 8002dda:	f7ff fdff 	bl	80029dc <SDMMC_CmdStatusRegister>
 8002dde:	4603      	mov	r3, r0
 8002de0:	b180      	cbz	r0, 8002e04 <SD_SendSDStatus+0x90>
 8002de2:	6b6a      	ldr	r2, [r5, #52]	; 0x34
 8002de4:	636a      	str	r2, [r5, #52]	; 0x34
 8002de6:	e03a      	b.n	8002e5e <SD_SendSDStatus+0xea>
 8002de8:	6828      	ldr	r0, [r5, #0]
 8002dea:	f7ff fc65 	bl	80026b8 <SDMMC_ReadFIFO>
 8002dee:	f846 0b04 	str.w	r0, [r6], #4
 8002df2:	3401      	adds	r4, #1
 8002df4:	2c07      	cmp	r4, #7
 8002df6:	d9f7      	bls.n	8002de8 <SD_SendSDStatus+0x74>
 8002df8:	f7fd fe3e 	bl	8000a78 <HAL_GetTick>
 8002dfc:	1bc0      	subs	r0, r0, r7
 8002dfe:	f1b0 3fff 	cmp.w	r0, #4294967295	; 0xffffffff
 8002e02:	d02f      	beq.n	8002e64 <SD_SendSDStatus+0xf0>
 8002e04:	682b      	ldr	r3, [r5, #0]
 8002e06:	6b5c      	ldr	r4, [r3, #52]	; 0x34
 8002e08:	f414 7495 	ands.w	r4, r4, #298	; 0x12a
 8002e0c:	d104      	bne.n	8002e18 <SD_SendSDStatus+0xa4>
 8002e0e:	6b5b      	ldr	r3, [r3, #52]	; 0x34
 8002e10:	f413 4f00 	tst.w	r3, #32768	; 0x8000
 8002e14:	d0f0      	beq.n	8002df8 <SD_SendSDStatus+0x84>
 8002e16:	e7ed      	b.n	8002df4 <SD_SendSDStatus+0x80>
 8002e18:	6b5a      	ldr	r2, [r3, #52]	; 0x34
 8002e1a:	f012 0f08 	tst.w	r2, #8
 8002e1e:	d124      	bne.n	8002e6a <SD_SendSDStatus+0xf6>
 8002e20:	6b5a      	ldr	r2, [r3, #52]	; 0x34
 8002e22:	f012 0f02 	tst.w	r2, #2
 8002e26:	d122      	bne.n	8002e6e <SD_SendSDStatus+0xfa>
 8002e28:	6b5b      	ldr	r3, [r3, #52]	; 0x34
 8002e2a:	f013 0f20 	tst.w	r3, #32
 8002e2e:	d120      	bne.n	8002e72 <SD_SendSDStatus+0xfe>
 8002e30:	6828      	ldr	r0, [r5, #0]
 8002e32:	6b43      	ldr	r3, [r0, #52]	; 0x34
 8002e34:	f413 5380 	ands.w	r3, r3, #4096	; 0x1000
 8002e38:	d00c      	beq.n	8002e54 <SD_SendSDStatus+0xe0>
 8002e3a:	f7ff fc3d 	bl	80026b8 <SDMMC_ReadFIFO>
 8002e3e:	f846 0b04 	str.w	r0, [r6], #4
 8002e42:	f7fd fe19 	bl	8000a78 <HAL_GetTick>
 8002e46:	1bc0      	subs	r0, r0, r7
 8002e48:	f1b0 3fff 	cmp.w	r0, #4294967295	; 0xffffffff
 8002e4c:	d1f0      	bne.n	8002e30 <SD_SendSDStatus+0xbc>
 8002e4e:	f04f 4300 	mov.w	r3, #2147483648	; 0x80000000
 8002e52:	e004      	b.n	8002e5e <SD_SendSDStatus+0xea>
 8002e54:	4a08      	ldr	r2, [pc, #32]	; (8002e78 <SD_SendSDStatus+0x104>)
 8002e56:	6382      	str	r2, [r0, #56]	; 0x38
 8002e58:	e001      	b.n	8002e5e <SD_SendSDStatus+0xea>
 8002e5a:	f44f 6300 	mov.w	r3, #2048	; 0x800
 8002e5e:	4618      	mov	r0, r3
 8002e60:	b007      	add	sp, #28
 8002e62:	bdf0      	pop	{r4, r5, r6, r7, pc}
 8002e64:	f04f 4300 	mov.w	r3, #2147483648	; 0x80000000
 8002e68:	e7f9      	b.n	8002e5e <SD_SendSDStatus+0xea>
 8002e6a:	2308      	movs	r3, #8
 8002e6c:	e7f7      	b.n	8002e5e <SD_SendSDStatus+0xea>
 8002e6e:	2302      	movs	r3, #2
 8002e70:	e7f5      	b.n	8002e5e <SD_SendSDStatus+0xea>
 8002e72:	2320      	movs	r3, #32
 8002e74:	e7f3      	b.n	8002e5e <SD_SendSDStatus+0xea>
 8002e76:	bf00      	nop
 8002e78:	18000f3a 	stmdane	r0, {r1, r3, r4, r5, r8, r9, sl, fp}

08002e7c <SD_FindSCR>:
 8002e7c:	b5f0      	push	{r4, r5, r6, r7, lr}
 8002e7e:	b089      	sub	sp, #36	; 0x24
 8002e80:	4604      	mov	r4, r0
 8002e82:	460f      	mov	r7, r1
 8002e84:	f7fd fdf8 	bl	8000a78 <HAL_GetTick>
 8002e88:	4605      	mov	r5, r0
 8002e8a:	2300      	movs	r3, #0
 8002e8c:	9300      	str	r3, [sp, #0]
 8002e8e:	9301      	str	r3, [sp, #4]
 8002e90:	2108      	movs	r1, #8
 8002e92:	6820      	ldr	r0, [r4, #0]
 8002e94:	f7ff fd0c 	bl	80028b0 <SDMMC_CmdBlockLength>
 8002e98:	4606      	mov	r6, r0
 8002e9a:	b110      	cbz	r0, 8002ea2 <SD_FindSCR+0x26>
 8002e9c:	4630      	mov	r0, r6
 8002e9e:	b009      	add	sp, #36	; 0x24
 8002ea0:	bdf0      	pop	{r4, r5, r6, r7, pc}
 8002ea2:	6c61      	ldr	r1, [r4, #68]	; 0x44
 8002ea4:	0409      	lsls	r1, r1, #16
 8002ea6:	6820      	ldr	r0, [r4, #0]
 8002ea8:	f7ff fd34 	bl	8002914 <SDMMC_CmdAppCommand>
 8002eac:	4606      	mov	r6, r0
 8002eae:	2800      	cmp	r0, #0
 8002eb0:	d1f4      	bne.n	8002e9c <SD_FindSCR+0x20>
 8002eb2:	f04f 33ff 	mov.w	r3, #4294967295	; 0xffffffff
 8002eb6:	9302      	str	r3, [sp, #8]
 8002eb8:	2308      	movs	r3, #8
 8002eba:	9303      	str	r3, [sp, #12]
 8002ebc:	2330      	movs	r3, #48	; 0x30
 8002ebe:	9304      	str	r3, [sp, #16]
 8002ec0:	2302      	movs	r3, #2
 8002ec2:	9305      	str	r3, [sp, #20]
 8002ec4:	2300      	movs	r3, #0
 8002ec6:	9306      	str	r3, [sp, #24]
 8002ec8:	2301      	movs	r3, #1
 8002eca:	9307      	str	r3, [sp, #28]
 8002ecc:	a902      	add	r1, sp, #8
 8002ece:	6820      	ldr	r0, [r4, #0]
 8002ed0:	f7ff fc18 	bl	8002704 <SDMMC_ConfigData>
 8002ed4:	6820      	ldr	r0, [r4, #0]
 8002ed6:	f7ff fd4f 	bl	8002978 <SDMMC_CmdSendSCR>
 8002eda:	4606      	mov	r6, r0
 8002edc:	b130      	cbz	r0, 8002eec <SD_FindSCR+0x70>
 8002ede:	e7dd      	b.n	8002e9c <SD_FindSCR+0x20>
 8002ee0:	f7fd fdca 	bl	8000a78 <HAL_GetTick>
 8002ee4:	1b43      	subs	r3, r0, r5
 8002ee6:	f1b3 3fff 	cmp.w	r3, #4294967295	; 0xffffffff
 8002eea:	d046      	beq.n	8002f7a <SD_FindSCR+0xfe>
 8002eec:	6820      	ldr	r0, [r4, #0]
 8002eee:	6b42      	ldr	r2, [r0, #52]	; 0x34
 8002ef0:	f240 532a 	movw	r3, #1322	; 0x52a
 8002ef4:	421a      	tst	r2, r3
 8002ef6:	d10e      	bne.n	8002f16 <SD_FindSCR+0x9a>
 8002ef8:	6b43      	ldr	r3, [r0, #52]	; 0x34
 8002efa:	f413 2f00 	tst.w	r3, #524288	; 0x80000
 8002efe:	d1ef      	bne.n	8002ee0 <SD_FindSCR+0x64>
 8002f00:	2e00      	cmp	r6, #0
 8002f02:	d1ed      	bne.n	8002ee0 <SD_FindSCR+0x64>
 8002f04:	f7ff fbd8 	bl	80026b8 <SDMMC_ReadFIFO>
 8002f08:	9000      	str	r0, [sp, #0]
 8002f0a:	6820      	ldr	r0, [r4, #0]
 8002f0c:	f7ff fbd4 	bl	80026b8 <SDMMC_ReadFIFO>
 8002f10:	9001      	str	r0, [sp, #4]
 8002f12:	3601      	adds	r6, #1
 8002f14:	e7e4      	b.n	8002ee0 <SD_FindSCR+0x64>
 8002f16:	6b43      	ldr	r3, [r0, #52]	; 0x34
 8002f18:	f013 0f08 	tst.w	r3, #8
 8002f1c:	d124      	bne.n	8002f68 <SD_FindSCR+0xec>
 8002f1e:	6b43      	ldr	r3, [r0, #52]	; 0x34
 8002f20:	f013 0f02 	tst.w	r3, #2
 8002f24:	d123      	bne.n	8002f6e <SD_FindSCR+0xf2>
 8002f26:	6b46      	ldr	r6, [r0, #52]	; 0x34
 8002f28:	f016 0620 	ands.w	r6, r6, #32
 8002f2c:	d122      	bne.n	8002f74 <SD_FindSCR+0xf8>
 8002f2e:	4b14      	ldr	r3, [pc, #80]	; (8002f80 <SD_FindSCR+0x104>)
 8002f30:	6383      	str	r3, [r0, #56]	; 0x38
 8002f32:	9a01      	ldr	r2, [sp, #4]
 8002f34:	0213      	lsls	r3, r2, #8
 8002f36:	f403 037f 	and.w	r3, r3, #16711680	; 0xff0000
 8002f3a:	ea43 6302 	orr.w	r3, r3, r2, lsl #24
 8002f3e:	0a11      	lsrs	r1, r2, #8
 8002f40:	f401 417f 	and.w	r1, r1, #65280	; 0xff00
 8002f44:	430b      	orrs	r3, r1
 8002f46:	ea43 6312 	orr.w	r3, r3, r2, lsr #24
 8002f4a:	603b      	str	r3, [r7, #0]
 8002f4c:	9a00      	ldr	r2, [sp, #0]
 8002f4e:	0213      	lsls	r3, r2, #8
 8002f50:	f403 037f 	and.w	r3, r3, #16711680	; 0xff0000
 8002f54:	ea43 6302 	orr.w	r3, r3, r2, lsl #24
 8002f58:	0a11      	lsrs	r1, r2, #8
 8002f5a:	f401 417f 	and.w	r1, r1, #65280	; 0xff00
 8002f5e:	430b      	orrs	r3, r1
 8002f60:	ea43 6312 	orr.w	r3, r3, r2, lsr #24
 8002f64:	607b      	str	r3, [r7, #4]
 8002f66:	e799      	b.n	8002e9c <SD_FindSCR+0x20>
 8002f68:	2608      	movs	r6, #8
 8002f6a:	6386      	str	r6, [r0, #56]	; 0x38
 8002f6c:	e796      	b.n	8002e9c <SD_FindSCR+0x20>
 8002f6e:	2602      	movs	r6, #2
 8002f70:	6386      	str	r6, [r0, #56]	; 0x38
 8002f72:	e793      	b.n	8002e9c <SD_FindSCR+0x20>
 8002f74:	2620      	movs	r6, #32
 8002f76:	6386      	str	r6, [r0, #56]	; 0x38
 8002f78:	e790      	b.n	8002e9c <SD_FindSCR+0x20>
 8002f7a:	f04f 4600 	mov.w	r6, #2147483648	; 0x80000000
 8002f7e:	e78d      	b.n	8002e9c <SD_FindSCR+0x20>
 8002f80:	18000f3a 	stmdane	r0, {r1, r3, r4, r5, r8, r9, sl, fp}

08002f84 <SD_WideBus_Enable>:
 8002f84:	b510      	push	{r4, lr}
 8002f86:	b082      	sub	sp, #8
 8002f88:	4604      	mov	r4, r0
 8002f8a:	2100      	movs	r1, #0
 8002f8c:	9100      	str	r1, [sp, #0]
 8002f8e:	9101      	str	r1, [sp, #4]
 8002f90:	6800      	ldr	r0, [r0, #0]
 8002f92:	f7ff fbb4 	bl	80026fe <SDMMC_GetResponse>
 8002f96:	f010 7f00 	tst.w	r0, #33554432	; 0x2000000
 8002f9a:	d113      	bne.n	8002fc4 <SD_WideBus_Enable+0x40>
 8002f9c:	4669      	mov	r1, sp
 8002f9e:	4620      	mov	r0, r4
 8002fa0:	f7ff ff6c 	bl	8002e7c <SD_FindSCR>
 8002fa4:	b980      	cbnz	r0, 8002fc8 <SD_WideBus_Enable+0x44>
 8002fa6:	9b01      	ldr	r3, [sp, #4]
 8002fa8:	f413 2f80 	tst.w	r3, #262144	; 0x40000
 8002fac:	d00e      	beq.n	8002fcc <SD_WideBus_Enable+0x48>
 8002fae:	6c61      	ldr	r1, [r4, #68]	; 0x44
 8002fb0:	0409      	lsls	r1, r1, #16
 8002fb2:	6820      	ldr	r0, [r4, #0]
 8002fb4:	f7ff fcae 	bl	8002914 <SDMMC_CmdAppCommand>
 8002fb8:	b930      	cbnz	r0, 8002fc8 <SD_WideBus_Enable+0x44>
 8002fba:	2102      	movs	r1, #2
 8002fbc:	6820      	ldr	r0, [r4, #0]
 8002fbe:	f7ff fcc2 	bl	8002946 <SDMMC_CmdBusWidth>
 8002fc2:	e001      	b.n	8002fc8 <SD_WideBus_Enable+0x44>
 8002fc4:	f44f 6000 	mov.w	r0, #2048	; 0x800
 8002fc8:	b002      	add	sp, #8
 8002fca:	bd10      	pop	{r4, pc}
 8002fcc:	f04f 6080 	mov.w	r0, #67108864	; 0x4000000
 8002fd0:	e7fa      	b.n	8002fc8 <SD_WideBus_Enable+0x44>

08002fd2 <SD_WideBus_Disable>:
 8002fd2:	b510      	push	{r4, lr}
 8002fd4:	b082      	sub	sp, #8
 8002fd6:	4604      	mov	r4, r0
 8002fd8:	2100      	movs	r1, #0
 8002fda:	9100      	str	r1, [sp, #0]
 8002fdc:	9101      	str	r1, [sp, #4]
 8002fde:	6800      	ldr	r0, [r0, #0]
 8002fe0:	f7ff fb8d 	bl	80026fe <SDMMC_GetResponse>
 8002fe4:	f010 7f00 	tst.w	r0, #33554432	; 0x2000000
 8002fe8:	d113      	bne.n	8003012 <SD_WideBus_Disable+0x40>
 8002fea:	4669      	mov	r1, sp
 8002fec:	4620      	mov	r0, r4
 8002fee:	f7ff ff45 	bl	8002e7c <SD_FindSCR>
 8002ff2:	b980      	cbnz	r0, 8003016 <SD_WideBus_Disable+0x44>
 8002ff4:	9b01      	ldr	r3, [sp, #4]
 8002ff6:	f413 3f80 	tst.w	r3, #65536	; 0x10000
 8002ffa:	d00e      	beq.n	800301a <SD_WideBus_Disable+0x48>
 8002ffc:	6c61      	ldr	r1, [r4, #68]	; 0x44
 8002ffe:	0409      	lsls	r1, r1, #16
 8003000:	6820      	ldr	r0, [r4, #0]
 8003002:	f7ff fc87 	bl	8002914 <SDMMC_CmdAppCommand>
 8003006:	b930      	cbnz	r0, 8003016 <SD_WideBus_Disable+0x44>
 8003008:	2100      	movs	r1, #0
 800300a:	6820      	ldr	r0, [r4, #0]
 800300c:	f7ff fc9b 	bl	8002946 <SDMMC_CmdBusWidth>
 8003010:	e001      	b.n	8003016 <SD_WideBus_Disable+0x44>
 8003012:	f44f 6000 	mov.w	r0, #2048	; 0x800
 8003016:	b002      	add	sp, #8
 8003018:	bd10      	pop	{r4, pc}
 800301a:	f04f 6080 	mov.w	r0, #67108864	; 0x4000000
 800301e:	e7fa      	b.n	8003016 <SD_WideBus_Disable+0x44>

08003020 <SD_SendStatus>:
 8003020:	b570      	push	{r4, r5, r6, lr}
 8003022:	b181      	cbz	r1, 8003046 <SD_SendStatus+0x26>
 8003024:	4604      	mov	r4, r0
 8003026:	460e      	mov	r6, r1
 8003028:	6c41      	ldr	r1, [r0, #68]	; 0x44
 800302a:	0409      	lsls	r1, r1, #16
 800302c:	6800      	ldr	r0, [r0, #0]
 800302e:	f7ff fcbc 	bl	80029aa <SDMMC_CmdSendStatus>
 8003032:	4605      	mov	r5, r0
 8003034:	b108      	cbz	r0, 800303a <SD_SendStatus+0x1a>
 8003036:	4628      	mov	r0, r5
 8003038:	bd70      	pop	{r4, r5, r6, pc}
 800303a:	2100      	movs	r1, #0
 800303c:	6820      	ldr	r0, [r4, #0]
 800303e:	f7ff fb5e 	bl	80026fe <SDMMC_GetResponse>
 8003042:	6030      	str	r0, [r6, #0]
 8003044:	e7f7      	b.n	8003036 <SD_SendStatus+0x16>
 8003046:	f04f 6500 	mov.w	r5, #134217728	; 0x8000000
 800304a:	e7f4      	b.n	8003036 <SD_SendStatus+0x16>

0800304c <HAL_SD_GetCardCSD>:
 800304c:	6dc3      	ldr	r3, [r0, #92]	; 0x5c
 800304e:	0f9b      	lsrs	r3, r3, #30
 8003050:	700b      	strb	r3, [r1, #0]
 8003052:	6dc3      	ldr	r3, [r0, #92]	; 0x5c
 8003054:	f3c3 6383 	ubfx	r3, r3, #26, #4
 8003058:	704b      	strb	r3, [r1, #1]
 800305a:	f890 305f 	ldrb.w	r3, [r0, #95]	; 0x5f
 800305e:	f003 0303 	and.w	r3, r3, #3
 8003062:	708b      	strb	r3, [r1, #2]
 8003064:	f890 305e 	ldrb.w	r3, [r0, #94]	; 0x5e
 8003068:	70cb      	strb	r3, [r1, #3]
 800306a:	f890 305d 	ldrb.w	r3, [r0, #93]	; 0x5d
 800306e:	710b      	strb	r3, [r1, #4]
 8003070:	f890 305c 	ldrb.w	r3, [r0, #92]	; 0x5c
 8003074:	714b      	strb	r3, [r1, #5]
 8003076:	6e03      	ldr	r3, [r0, #96]	; 0x60
 8003078:	0d1b      	lsrs	r3, r3, #20
 800307a:	80cb      	strh	r3, [r1, #6]
 800307c:	f8b0 3062 	ldrh.w	r3, [r0, #98]	; 0x62
 8003080:	f003 030f 	and.w	r3, r3, #15
 8003084:	720b      	strb	r3, [r1, #8]
 8003086:	6e03      	ldr	r3, [r0, #96]	; 0x60
 8003088:	f3c3 33c0 	ubfx	r3, r3, #15, #1
 800308c:	724b      	strb	r3, [r1, #9]
 800308e:	6e03      	ldr	r3, [r0, #96]	; 0x60
 8003090:	f3c3 3380 	ubfx	r3, r3, #14, #1
 8003094:	728b      	strb	r3, [r1, #10]
 8003096:	6e03      	ldr	r3, [r0, #96]	; 0x60
 8003098:	f3c3 3340 	ubfx	r3, r3, #13, #1
 800309c:	72cb      	strb	r3, [r1, #11]
 800309e:	6e03      	ldr	r3, [r0, #96]	; 0x60
 80030a0:	f3c3 3300 	ubfx	r3, r3, #12, #1
 80030a4:	730b      	strb	r3, [r1, #12]
 80030a6:	2300      	movs	r3, #0
 80030a8:	734b      	strb	r3, [r1, #13]
 80030aa:	6b83      	ldr	r3, [r0, #56]	; 0x38
 80030ac:	2b00      	cmp	r3, #0
 80030ae:	f040 8086 	bne.w	80031be <HAL_SD_GetCardCSD+0x172>
 80030b2:	6e02      	ldr	r2, [r0, #96]	; 0x60
 80030b4:	f640 73fc 	movw	r3, #4092	; 0xffc
 80030b8:	ea03 0382 	and.w	r3, r3, r2, lsl #2
 80030bc:	6e42      	ldr	r2, [r0, #100]	; 0x64
 80030be:	ea43 7392 	orr.w	r3, r3, r2, lsr #30
 80030c2:	610b      	str	r3, [r1, #16]
 80030c4:	6e43      	ldr	r3, [r0, #100]	; 0x64
 80030c6:	f3c3 63c2 	ubfx	r3, r3, #27, #3
 80030ca:	750b      	strb	r3, [r1, #20]
 80030cc:	f890 3067 	ldrb.w	r3, [r0, #103]	; 0x67
 80030d0:	f003 0307 	and.w	r3, r3, #7
 80030d4:	754b      	strb	r3, [r1, #21]
 80030d6:	6e43      	ldr	r3, [r0, #100]	; 0x64
 80030d8:	f3c3 5342 	ubfx	r3, r3, #21, #3
 80030dc:	758b      	strb	r3, [r1, #22]
 80030de:	6e43      	ldr	r3, [r0, #100]	; 0x64
 80030e0:	f3c3 4382 	ubfx	r3, r3, #18, #3
 80030e4:	75cb      	strb	r3, [r1, #23]
 80030e6:	6e43      	ldr	r3, [r0, #100]	; 0x64
 80030e8:	f3c3 33c2 	ubfx	r3, r3, #15, #3
 80030ec:	760b      	strb	r3, [r1, #24]
 80030ee:	690b      	ldr	r3, [r1, #16]
 80030f0:	3301      	adds	r3, #1
 80030f2:	6483      	str	r3, [r0, #72]	; 0x48
 80030f4:	7e0a      	ldrb	r2, [r1, #24]
 80030f6:	f002 0207 	and.w	r2, r2, #7
 80030fa:	3202      	adds	r2, #2
 80030fc:	4093      	lsls	r3, r2
 80030fe:	6483      	str	r3, [r0, #72]	; 0x48
 8003100:	7a0a      	ldrb	r2, [r1, #8]
 8003102:	f002 0c0f 	and.w	ip, r2, #15
 8003106:	2201      	movs	r2, #1
 8003108:	fa02 f20c 	lsl.w	r2, r2, ip
 800310c:	64c2      	str	r2, [r0, #76]	; 0x4c
 800310e:	0a52      	lsrs	r2, r2, #9
 8003110:	fb02 f303 	mul.w	r3, r2, r3
 8003114:	6503      	str	r3, [r0, #80]	; 0x50
 8003116:	f44f 7300 	mov.w	r3, #512	; 0x200
 800311a:	6543      	str	r3, [r0, #84]	; 0x54
 800311c:	6e43      	ldr	r3, [r0, #100]	; 0x64
 800311e:	f3c3 3380 	ubfx	r3, r3, #14, #1
 8003122:	764b      	strb	r3, [r1, #25]
 8003124:	6e43      	ldr	r3, [r0, #100]	; 0x64
 8003126:	f3c3 13c6 	ubfx	r3, r3, #7, #7
 800312a:	768b      	strb	r3, [r1, #26]
 800312c:	6e43      	ldr	r3, [r0, #100]	; 0x64
 800312e:	f003 037f 	and.w	r3, r3, #127	; 0x7f
 8003132:	76cb      	strb	r3, [r1, #27]
 8003134:	6e83      	ldr	r3, [r0, #104]	; 0x68
 8003136:	0fdb      	lsrs	r3, r3, #31
 8003138:	770b      	strb	r3, [r1, #28]
 800313a:	6e83      	ldr	r3, [r0, #104]	; 0x68
 800313c:	f3c3 7341 	ubfx	r3, r3, #29, #2
 8003140:	774b      	strb	r3, [r1, #29]
 8003142:	6e83      	ldr	r3, [r0, #104]	; 0x68
 8003144:	f3c3 6382 	ubfx	r3, r3, #26, #3
 8003148:	778b      	strb	r3, [r1, #30]
 800314a:	6e83      	ldr	r3, [r0, #104]	; 0x68
 800314c:	f3c3 5383 	ubfx	r3, r3, #22, #4
 8003150:	77cb      	strb	r3, [r1, #31]
 8003152:	6e83      	ldr	r3, [r0, #104]	; 0x68
 8003154:	f3c3 5340 	ubfx	r3, r3, #21, #1
 8003158:	f881 3020 	strb.w	r3, [r1, #32]
 800315c:	2300      	movs	r3, #0
 800315e:	f881 3021 	strb.w	r3, [r1, #33]	; 0x21
 8003162:	f8b0 206a 	ldrh.w	r2, [r0, #106]	; 0x6a
 8003166:	f002 0201 	and.w	r2, r2, #1
 800316a:	f881 2022 	strb.w	r2, [r1, #34]	; 0x22
 800316e:	6e82      	ldr	r2, [r0, #104]	; 0x68
 8003170:	f3c2 32c0 	ubfx	r2, r2, #15, #1
 8003174:	f881 2023 	strb.w	r2, [r1, #35]	; 0x23
 8003178:	6e82      	ldr	r2, [r0, #104]	; 0x68
 800317a:	f3c2 3280 	ubfx	r2, r2, #14, #1
 800317e:	f881 2024 	strb.w	r2, [r1, #36]	; 0x24
 8003182:	6e82      	ldr	r2, [r0, #104]	; 0x68
 8003184:	f3c2 3240 	ubfx	r2, r2, #13, #1
 8003188:	f881 2025 	strb.w	r2, [r1, #37]	; 0x25
 800318c:	6e82      	ldr	r2, [r0, #104]	; 0x68
 800318e:	f3c2 3200 	ubfx	r2, r2, #12, #1
 8003192:	f881 2026 	strb.w	r2, [r1, #38]	; 0x26
 8003196:	6e82      	ldr	r2, [r0, #104]	; 0x68
 8003198:	f3c2 2281 	ubfx	r2, r2, #10, #2
 800319c:	f881 2027 	strb.w	r2, [r1, #39]	; 0x27
 80031a0:	6e82      	ldr	r2, [r0, #104]	; 0x68
 80031a2:	f3c2 2201 	ubfx	r2, r2, #8, #2
 80031a6:	f881 2028 	strb.w	r2, [r1, #40]	; 0x28
 80031aa:	6e82      	ldr	r2, [r0, #104]	; 0x68
 80031ac:	f3c2 0246 	ubfx	r2, r2, #1, #7
 80031b0:	f881 2029 	strb.w	r2, [r1, #41]	; 0x29
 80031b4:	2201      	movs	r2, #1
 80031b6:	f881 202a 	strb.w	r2, [r1, #42]	; 0x2a
 80031ba:	4618      	mov	r0, r3
 80031bc:	4770      	bx	lr
 80031be:	2b01      	cmp	r3, #1
 80031c0:	d111      	bne.n	80031e6 <HAL_SD_GetCardCSD+0x19a>
 80031c2:	6e03      	ldr	r3, [r0, #96]	; 0x60
 80031c4:	041b      	lsls	r3, r3, #16
 80031c6:	f403 137c 	and.w	r3, r3, #4128768	; 0x3f0000
 80031ca:	f8b0 2066 	ldrh.w	r2, [r0, #102]	; 0x66
 80031ce:	4313      	orrs	r3, r2
 80031d0:	610b      	str	r3, [r1, #16]
 80031d2:	690b      	ldr	r3, [r1, #16]
 80031d4:	3301      	adds	r3, #1
 80031d6:	029b      	lsls	r3, r3, #10
 80031d8:	6483      	str	r3, [r0, #72]	; 0x48
 80031da:	6503      	str	r3, [r0, #80]	; 0x50
 80031dc:	f44f 7300 	mov.w	r3, #512	; 0x200
 80031e0:	64c3      	str	r3, [r0, #76]	; 0x4c
 80031e2:	6543      	str	r3, [r0, #84]	; 0x54
 80031e4:	e79a      	b.n	800311c <HAL_SD_GetCardCSD+0xd0>
 80031e6:	6803      	ldr	r3, [r0, #0]
 80031e8:	4a05      	ldr	r2, [pc, #20]	; (8003200 <HAL_SD_GetCardCSD+0x1b4>)
 80031ea:	639a      	str	r2, [r3, #56]	; 0x38
 80031ec:	6b43      	ldr	r3, [r0, #52]	; 0x34
 80031ee:	f043 5380 	orr.w	r3, r3, #268435456	; 0x10000000
 80031f2:	6343      	str	r3, [r0, #52]	; 0x34
 80031f4:	2301      	movs	r3, #1
 80031f6:	f880 3030 	strb.w	r3, [r0, #48]	; 0x30
 80031fa:	4618      	mov	r0, r3
 80031fc:	4770      	bx	lr
 80031fe:	bf00      	nop
 8003200:	1fe00fff 	svcne	0x00e00fff

08003204 <SD_InitCard>:
 8003204:	b530      	push	{r4, r5, lr}
 8003206:	b08d      	sub	sp, #52	; 0x34
 8003208:	4604      	mov	r4, r0
 800320a:	2300      	movs	r3, #0
 800320c:	f8ad 3002 	strh.w	r3, [sp, #2]
 8003210:	f7fd fc32 	bl	8000a78 <HAL_GetTick>
 8003214:	4605      	mov	r5, r0
 8003216:	6820      	ldr	r0, [r4, #0]
 8003218:	f7ff fa57 	bl	80026ca <SDMMC_GetPowerState>
 800321c:	2800      	cmp	r0, #0
 800321e:	d067      	beq.n	80032f0 <SD_InitCard+0xec>
 8003220:	6ba3      	ldr	r3, [r4, #56]	; 0x38
 8003222:	2b03      	cmp	r3, #3
 8003224:	d117      	bne.n	8003256 <SD_InitCard+0x52>
 8003226:	6ba3      	ldr	r3, [r4, #56]	; 0x38
 8003228:	2b03      	cmp	r3, #3
 800322a:	d02f      	beq.n	800328c <SD_InitCard+0x88>
 800322c:	f8bd 3002 	ldrh.w	r3, [sp, #2]
 8003230:	bb63      	cbnz	r3, 800328c <SD_InitCard+0x88>
 8003232:	f10d 0102 	add.w	r1, sp, #2
 8003236:	6820      	ldr	r0, [r4, #0]
 8003238:	f7ff fcd6 	bl	8002be8 <SDMMC_CmdSetRelAdd>
 800323c:	4603      	mov	r3, r0
 800323e:	2800      	cmp	r0, #0
 8003240:	d158      	bne.n	80032f4 <SD_InitCard+0xf0>
 8003242:	f7fd fc19 	bl	8000a78 <HAL_GetTick>
 8003246:	1b43      	subs	r3, r0, r5
 8003248:	f241 3287 	movw	r2, #4999	; 0x1387
 800324c:	4293      	cmp	r3, r2
 800324e:	d9ed      	bls.n	800322c <SD_InitCard+0x28>
 8003250:	f04f 4300 	mov.w	r3, #2147483648	; 0x80000000
 8003254:	e04e      	b.n	80032f4 <SD_InitCard+0xf0>
 8003256:	6820      	ldr	r0, [r4, #0]
 8003258:	f7ff fc0a 	bl	8002a70 <SDMMC_CmdSendCID>
 800325c:	4603      	mov	r3, r0
 800325e:	2800      	cmp	r0, #0
 8003260:	d148      	bne.n	80032f4 <SD_InitCard+0xf0>
 8003262:	2100      	movs	r1, #0
 8003264:	6820      	ldr	r0, [r4, #0]
 8003266:	f7ff fa4a 	bl	80026fe <SDMMC_GetResponse>
 800326a:	66e0      	str	r0, [r4, #108]	; 0x6c
 800326c:	2104      	movs	r1, #4
 800326e:	6820      	ldr	r0, [r4, #0]
 8003270:	f7ff fa45 	bl	80026fe <SDMMC_GetResponse>
 8003274:	6720      	str	r0, [r4, #112]	; 0x70
 8003276:	2108      	movs	r1, #8
 8003278:	6820      	ldr	r0, [r4, #0]
 800327a:	f7ff fa40 	bl	80026fe <SDMMC_GetResponse>
 800327e:	6760      	str	r0, [r4, #116]	; 0x74
 8003280:	210c      	movs	r1, #12
 8003282:	6820      	ldr	r0, [r4, #0]
 8003284:	f7ff fa3b 	bl	80026fe <SDMMC_GetResponse>
 8003288:	67a0      	str	r0, [r4, #120]	; 0x78
 800328a:	e7cc      	b.n	8003226 <SD_InitCard+0x22>
 800328c:	6ba3      	ldr	r3, [r4, #56]	; 0x38
 800328e:	2b03      	cmp	r3, #3
 8003290:	d01c      	beq.n	80032cc <SD_InitCard+0xc8>
 8003292:	f8bd 1002 	ldrh.w	r1, [sp, #2]
 8003296:	6461      	str	r1, [r4, #68]	; 0x44
 8003298:	0409      	lsls	r1, r1, #16
 800329a:	6820      	ldr	r0, [r4, #0]
 800329c:	f7ff fbfe 	bl	8002a9c <SDMMC_CmdSendCSD>
 80032a0:	4603      	mov	r3, r0
 80032a2:	bb38      	cbnz	r0, 80032f4 <SD_InitCard+0xf0>
 80032a4:	2100      	movs	r1, #0
 80032a6:	6820      	ldr	r0, [r4, #0]
 80032a8:	f7ff fa29 	bl	80026fe <SDMMC_GetResponse>
 80032ac:	65e0      	str	r0, [r4, #92]	; 0x5c
 80032ae:	2104      	movs	r1, #4
 80032b0:	6820      	ldr	r0, [r4, #0]
 80032b2:	f7ff fa24 	bl	80026fe <SDMMC_GetResponse>
 80032b6:	6620      	str	r0, [r4, #96]	; 0x60
 80032b8:	2108      	movs	r1, #8
 80032ba:	6820      	ldr	r0, [r4, #0]
 80032bc:	f7ff fa1f 	bl	80026fe <SDMMC_GetResponse>
 80032c0:	6660      	str	r0, [r4, #100]	; 0x64
 80032c2:	210c      	movs	r1, #12
 80032c4:	6820      	ldr	r0, [r4, #0]
 80032c6:	f7ff fa1a 	bl	80026fe <SDMMC_GetResponse>
 80032ca:	66a0      	str	r0, [r4, #104]	; 0x68
 80032cc:	2104      	movs	r1, #4
 80032ce:	6820      	ldr	r0, [r4, #0]
 80032d0:	f7ff fa15 	bl	80026fe <SDMMC_GetResponse>
 80032d4:	0d00      	lsrs	r0, r0, #20
 80032d6:	6420      	str	r0, [r4, #64]	; 0x40
 80032d8:	a901      	add	r1, sp, #4
 80032da:	4620      	mov	r0, r4
 80032dc:	f7ff feb6 	bl	800304c <HAL_SD_GetCardCSD>
 80032e0:	b958      	cbnz	r0, 80032fa <SD_InitCard+0xf6>
 80032e2:	6c61      	ldr	r1, [r4, #68]	; 0x44
 80032e4:	0409      	lsls	r1, r1, #16
 80032e6:	6820      	ldr	r0, [r4, #0]
 80032e8:	f7ff fafb 	bl	80028e2 <SDMMC_CmdSelDesel>
 80032ec:	4603      	mov	r3, r0
 80032ee:	e001      	b.n	80032f4 <SD_InitCard+0xf0>
 80032f0:	f04f 6380 	mov.w	r3, #67108864	; 0x4000000
 80032f4:	4618      	mov	r0, r3
 80032f6:	b00d      	add	sp, #52	; 0x34
 80032f8:	bd30      	pop	{r4, r5, pc}
 80032fa:	f04f 5380 	mov.w	r3, #268435456	; 0x10000000
 80032fe:	e7f9      	b.n	80032f4 <SD_InitCard+0xf0>

08003300 <HAL_SD_InitCard>:
 8003300:	b570      	push	{r4, r5, r6, lr}
 8003302:	b088      	sub	sp, #32
 8003304:	4604      	mov	r4, r0
 8003306:	2300      	movs	r3, #0
 8003308:	9303      	str	r3, [sp, #12]
 800330a:	9304      	str	r3, [sp, #16]
 800330c:	9305      	str	r3, [sp, #20]
 800330e:	9306      	str	r3, [sp, #24]
 8003310:	f44f 1000 	mov.w	r0, #2097152	; 0x200000
 8003314:	2100      	movs	r1, #0
 8003316:	f7fd fff5 	bl	8001304 <HAL_RCCEx_GetPeriphCLKFreq>
 800331a:	b938      	cbnz	r0, 800332c <HAL_SD_InitCard+0x2c>
 800331c:	2001      	movs	r0, #1
 800331e:	f884 0030 	strb.w	r0, [r4, #48]	; 0x30
 8003322:	f04f 6300 	mov.w	r3, #134217728	; 0x8000000
 8003326:	6363      	str	r3, [r4, #52]	; 0x34
 8003328:	b008      	add	sp, #32
 800332a:	bd70      	pop	{r4, r5, r6, pc}
 800332c:	4606      	mov	r6, r0
 800332e:	0a05      	lsrs	r5, r0, #8
 8003330:	4b23      	ldr	r3, [pc, #140]	; (80033c0 <HAL_SD_InitCard+0xc0>)
 8003332:	fba3 3505 	umull	r3, r5, r3, r5
 8003336:	092d      	lsrs	r5, r5, #4
 8003338:	9507      	str	r5, [sp, #28]
 800333a:	ab08      	add	r3, sp, #32
 800333c:	e913 0003 	ldmdb	r3, {r0, r1}
 8003340:	e88d 0003 	stmia.w	sp, {r0, r1}
 8003344:	ab03      	add	r3, sp, #12
 8003346:	cb0e      	ldmia	r3, {r1, r2, r3}
 8003348:	6820      	ldr	r0, [r4, #0]
 800334a:	f7ff f99d 	bl	8002688 <SDMMC_Init>
 800334e:	6820      	ldr	r0, [r4, #0]
 8003350:	f7ff f9b5 	bl	80026be <SDMMC_PowerState_ON>
 8003354:	b115      	cbz	r5, 800335c <HAL_SD_InitCard+0x5c>
 8003356:	006d      	lsls	r5, r5, #1
 8003358:	fbb6 f6f5 	udiv	r6, r6, r5
 800335c:	b95e      	cbnz	r6, 8003376 <HAL_SD_InitCard+0x76>
 800335e:	4620      	mov	r0, r4
 8003360:	f7ff fca6 	bl	8002cb0 <SD_PowerON>
 8003364:	4602      	mov	r2, r0
 8003366:	b168      	cbz	r0, 8003384 <HAL_SD_InitCard+0x84>
 8003368:	2001      	movs	r0, #1
 800336a:	f884 0030 	strb.w	r0, [r4, #48]	; 0x30
 800336e:	6b63      	ldr	r3, [r4, #52]	; 0x34
 8003370:	4313      	orrs	r3, r2
 8003372:	6363      	str	r3, [r4, #52]	; 0x34
 8003374:	e7d8      	b.n	8003328 <HAL_SD_InitCard+0x28>
 8003376:	4813      	ldr	r0, [pc, #76]	; (80033c4 <HAL_SD_InitCard+0xc4>)
 8003378:	fbb0 f0f6 	udiv	r0, r0, r6
 800337c:	3001      	adds	r0, #1
 800337e:	f7fd fb81 	bl	8000a84 <HAL_Delay>
 8003382:	e7ec      	b.n	800335e <HAL_SD_InitCard+0x5e>
 8003384:	4620      	mov	r0, r4
 8003386:	f7ff ff3d 	bl	8003204 <SD_InitCard>
 800338a:	4602      	mov	r2, r0
 800338c:	b130      	cbz	r0, 800339c <HAL_SD_InitCard+0x9c>
 800338e:	2001      	movs	r0, #1
 8003390:	f884 0030 	strb.w	r0, [r4, #48]	; 0x30
 8003394:	6b63      	ldr	r3, [r4, #52]	; 0x34
 8003396:	4313      	orrs	r3, r2
 8003398:	6363      	str	r3, [r4, #52]	; 0x34
 800339a:	e7c5      	b.n	8003328 <HAL_SD_InitCard+0x28>
 800339c:	f44f 7100 	mov.w	r1, #512	; 0x200
 80033a0:	6820      	ldr	r0, [r4, #0]
 80033a2:	f7ff fa85 	bl	80028b0 <SDMMC_CmdBlockLength>
 80033a6:	b908      	cbnz	r0, 80033ac <HAL_SD_InitCard+0xac>
 80033a8:	2000      	movs	r0, #0
 80033aa:	e7bd      	b.n	8003328 <HAL_SD_InitCard+0x28>
 80033ac:	6823      	ldr	r3, [r4, #0]
 80033ae:	4906      	ldr	r1, [pc, #24]	; (80033c8 <HAL_SD_InitCard+0xc8>)
 80033b0:	6399      	str	r1, [r3, #56]	; 0x38
 80033b2:	6b63      	ldr	r3, [r4, #52]	; 0x34
 80033b4:	4303      	orrs	r3, r0
 80033b6:	6363      	str	r3, [r4, #52]	; 0x34
 80033b8:	2001      	movs	r0, #1
 80033ba:	f884 0030 	strb.w	r0, [r4, #48]	; 0x30
 80033be:	e7b3      	b.n	8003328 <HAL_SD_InitCard+0x28>
 80033c0:	014f8b59 	cmpeq	pc, r9, asr fp	; <UNPREDICTABLE>
 80033c4:	00012110 	andeq	r2, r1, r0, lsl r1
 80033c8:	1fe00fff 	svcne	0x00e00fff

080033cc <HAL_SD_GetCardStatus>:
 80033cc:	b530      	push	{r4, r5, lr}
 80033ce:	b091      	sub	sp, #68	; 0x44
 80033d0:	f890 3030 	ldrb.w	r3, [r0, #48]	; 0x30
 80033d4:	b2db      	uxtb	r3, r3
 80033d6:	2b03      	cmp	r3, #3
 80033d8:	d059      	beq.n	800348e <HAL_SD_GetCardStatus+0xc2>
 80033da:	4604      	mov	r4, r0
 80033dc:	460d      	mov	r5, r1
 80033de:	4669      	mov	r1, sp
 80033e0:	f7ff fcc8 	bl	8002d74 <SD_SendSDStatus>
 80033e4:	b1b8      	cbz	r0, 8003416 <HAL_SD_GetCardStatus+0x4a>
 80033e6:	6823      	ldr	r3, [r4, #0]
 80033e8:	492b      	ldr	r1, [pc, #172]	; (8003498 <HAL_SD_GetCardStatus+0xcc>)
 80033ea:	6399      	str	r1, [r3, #56]	; 0x38
 80033ec:	6b63      	ldr	r3, [r4, #52]	; 0x34
 80033ee:	4303      	orrs	r3, r0
 80033f0:	6363      	str	r3, [r4, #52]	; 0x34
 80033f2:	2501      	movs	r5, #1
 80033f4:	f884 5030 	strb.w	r5, [r4, #48]	; 0x30
 80033f8:	f44f 7100 	mov.w	r1, #512	; 0x200
 80033fc:	6820      	ldr	r0, [r4, #0]
 80033fe:	f7ff fa57 	bl	80028b0 <SDMMC_CmdBlockLength>
 8003402:	2800      	cmp	r0, #0
 8003404:	d044      	beq.n	8003490 <HAL_SD_GetCardStatus+0xc4>
 8003406:	6822      	ldr	r2, [r4, #0]
 8003408:	4923      	ldr	r1, [pc, #140]	; (8003498 <HAL_SD_GetCardStatus+0xcc>)
 800340a:	6391      	str	r1, [r2, #56]	; 0x38
 800340c:	6360      	str	r0, [r4, #52]	; 0x34
 800340e:	2501      	movs	r5, #1
 8003410:	f884 5030 	strb.w	r5, [r4, #48]	; 0x30
 8003414:	e03c      	b.n	8003490 <HAL_SD_GetCardStatus+0xc4>
 8003416:	9a00      	ldr	r2, [sp, #0]
 8003418:	f3c2 1381 	ubfx	r3, r2, #6, #2
 800341c:	702b      	strb	r3, [r5, #0]
 800341e:	f3c2 1340 	ubfx	r3, r2, #5, #1
 8003422:	706b      	strb	r3, [r5, #1]
 8003424:	0a13      	lsrs	r3, r2, #8
 8003426:	f023 03ff 	bic.w	r3, r3, #255	; 0xff
 800342a:	ea43 6312 	orr.w	r3, r3, r2, lsr #24
 800342e:	b29b      	uxth	r3, r3
 8003430:	806b      	strh	r3, [r5, #2]
 8003432:	9a01      	ldr	r2, [sp, #4]
 8003434:	0213      	lsls	r3, r2, #8
 8003436:	f403 037f 	and.w	r3, r3, #16711680	; 0xff0000
 800343a:	ea43 6302 	orr.w	r3, r3, r2, lsl #24
 800343e:	0a11      	lsrs	r1, r2, #8
 8003440:	f401 417f 	and.w	r1, r1, #65280	; 0xff00
 8003444:	430b      	orrs	r3, r1
 8003446:	ea43 6312 	orr.w	r3, r3, r2, lsr #24
 800344a:	606b      	str	r3, [r5, #4]
 800344c:	9b02      	ldr	r3, [sp, #8]
 800344e:	b2da      	uxtb	r2, r3
 8003450:	722a      	strb	r2, [r5, #8]
 8003452:	f3c3 2207 	ubfx	r2, r3, #8, #8
 8003456:	726a      	strb	r2, [r5, #9]
 8003458:	f3c3 5203 	ubfx	r2, r3, #20, #4
 800345c:	72aa      	strb	r2, [r5, #10]
 800345e:	0c1b      	lsrs	r3, r3, #16
 8003460:	9a03      	ldr	r2, [sp, #12]
 8003462:	b2d1      	uxtb	r1, r2
 8003464:	f023 03ff 	bic.w	r3, r3, #255	; 0xff
 8003468:	430b      	orrs	r3, r1
 800346a:	81ab      	strh	r3, [r5, #12]
 800346c:	f3c2 2385 	ubfx	r3, r2, #10, #6
 8003470:	73ab      	strb	r3, [r5, #14]
 8003472:	f3c2 2301 	ubfx	r3, r2, #8, #2
 8003476:	73eb      	strb	r3, [r5, #15]
 8003478:	f3c2 1303 	ubfx	r3, r2, #4, #4
 800347c:	742b      	strb	r3, [r5, #16]
 800347e:	f002 020f 	and.w	r2, r2, #15
 8003482:	746a      	strb	r2, [r5, #17]
 8003484:	f89d 3013 	ldrb.w	r3, [sp, #19]
 8003488:	74ab      	strb	r3, [r5, #18]
 800348a:	2500      	movs	r5, #0
 800348c:	e7b4      	b.n	80033f8 <HAL_SD_GetCardStatus+0x2c>
 800348e:	2501      	movs	r5, #1
 8003490:	4628      	mov	r0, r5
 8003492:	b011      	add	sp, #68	; 0x44
 8003494:	bd30      	pop	{r4, r5, pc}
 8003496:	bf00      	nop
 8003498:	1fe00fff 	svcne	0x00e00fff

0800349c <HAL_SD_ConfigWideBusOperation>:
 800349c:	b530      	push	{r4, r5, lr}
 800349e:	b089      	sub	sp, #36	; 0x24
 80034a0:	4604      	mov	r4, r0
 80034a2:	460d      	mov	r5, r1
 80034a4:	2303      	movs	r3, #3
 80034a6:	f880 3030 	strb.w	r3, [r0, #48]	; 0x30
 80034aa:	6b83      	ldr	r3, [r0, #56]	; 0x38
 80034ac:	2b03      	cmp	r3, #3
 80034ae:	d01c      	beq.n	80034ea <HAL_SD_ConfigWideBusOperation+0x4e>
 80034b0:	f5b1 4f00 	cmp.w	r1, #32768	; 0x8000
 80034b4:	d008      	beq.n	80034c8 <HAL_SD_ConfigWideBusOperation+0x2c>
 80034b6:	f5b1 4f80 	cmp.w	r1, #16384	; 0x4000
 80034ba:	d00a      	beq.n	80034d2 <HAL_SD_ConfigWideBusOperation+0x36>
 80034bc:	b179      	cbz	r1, 80034de <HAL_SD_ConfigWideBusOperation+0x42>
 80034be:	6b43      	ldr	r3, [r0, #52]	; 0x34
 80034c0:	f043 6300 	orr.w	r3, r3, #134217728	; 0x8000000
 80034c4:	6343      	str	r3, [r0, #52]	; 0x34
 80034c6:	e014      	b.n	80034f2 <HAL_SD_ConfigWideBusOperation+0x56>
 80034c8:	6b43      	ldr	r3, [r0, #52]	; 0x34
 80034ca:	f043 5380 	orr.w	r3, r3, #268435456	; 0x10000000
 80034ce:	6343      	str	r3, [r0, #52]	; 0x34
 80034d0:	e00f      	b.n	80034f2 <HAL_SD_ConfigWideBusOperation+0x56>
 80034d2:	f7ff fd57 	bl	8002f84 <SD_WideBus_Enable>
 80034d6:	6b63      	ldr	r3, [r4, #52]	; 0x34
 80034d8:	4303      	orrs	r3, r0
 80034da:	6363      	str	r3, [r4, #52]	; 0x34
 80034dc:	e009      	b.n	80034f2 <HAL_SD_ConfigWideBusOperation+0x56>
 80034de:	f7ff fd78 	bl	8002fd2 <SD_WideBus_Disable>
 80034e2:	6b63      	ldr	r3, [r4, #52]	; 0x34
 80034e4:	4303      	orrs	r3, r0
 80034e6:	6363      	str	r3, [r4, #52]	; 0x34
 80034e8:	e003      	b.n	80034f2 <HAL_SD_ConfigWideBusOperation+0x56>
 80034ea:	6b43      	ldr	r3, [r0, #52]	; 0x34
 80034ec:	f043 5380 	orr.w	r3, r3, #268435456	; 0x10000000
 80034f0:	6343      	str	r3, [r0, #52]	; 0x34
 80034f2:	6b63      	ldr	r3, [r4, #52]	; 0x34
 80034f4:	b1b3      	cbz	r3, 8003524 <HAL_SD_ConfigWideBusOperation+0x88>
 80034f6:	6823      	ldr	r3, [r4, #0]
 80034f8:	4a3a      	ldr	r2, [pc, #232]	; (80035e4 <HAL_SD_ConfigWideBusOperation+0x148>)
 80034fa:	639a      	str	r2, [r3, #56]	; 0x38
 80034fc:	2501      	movs	r5, #1
 80034fe:	f44f 7100 	mov.w	r1, #512	; 0x200
 8003502:	6820      	ldr	r0, [r4, #0]
 8003504:	f7ff f9d4 	bl	80028b0 <SDMMC_CmdBlockLength>
 8003508:	b130      	cbz	r0, 8003518 <HAL_SD_ConfigWideBusOperation+0x7c>
 800350a:	6823      	ldr	r3, [r4, #0]
 800350c:	4935      	ldr	r1, [pc, #212]	; (80035e4 <HAL_SD_ConfigWideBusOperation+0x148>)
 800350e:	6399      	str	r1, [r3, #56]	; 0x38
 8003510:	6b63      	ldr	r3, [r4, #52]	; 0x34
 8003512:	4303      	orrs	r3, r0
 8003514:	6363      	str	r3, [r4, #52]	; 0x34
 8003516:	2501      	movs	r5, #1
 8003518:	2301      	movs	r3, #1
 800351a:	f884 3030 	strb.w	r3, [r4, #48]	; 0x30
 800351e:	4628      	mov	r0, r5
 8003520:	b009      	add	sp, #36	; 0x24
 8003522:	bd30      	pop	{r4, r5, pc}
 8003524:	f44f 1000 	mov.w	r0, #2097152	; 0x200000
 8003528:	2100      	movs	r1, #0
 800352a:	f7fd feeb 	bl	8001304 <HAL_RCCEx_GetPeriphCLKFreq>
 800352e:	4602      	mov	r2, r0
 8003530:	2800      	cmp	r0, #0
 8003532:	d050      	beq.n	80035d6 <HAL_SD_ConfigWideBusOperation+0x13a>
 8003534:	6863      	ldr	r3, [r4, #4]
 8003536:	9303      	str	r3, [sp, #12]
 8003538:	68a3      	ldr	r3, [r4, #8]
 800353a:	9304      	str	r3, [sp, #16]
 800353c:	9505      	str	r5, [sp, #20]
 800353e:	6923      	ldr	r3, [r4, #16]
 8003540:	9306      	str	r3, [sp, #24]
 8003542:	6961      	ldr	r1, [r4, #20]
 8003544:	4b28      	ldr	r3, [pc, #160]	; (80035e8 <HAL_SD_ConfigWideBusOperation+0x14c>)
 8003546:	fba3 0302 	umull	r0, r3, r3, r2
 800354a:	0e18      	lsrs	r0, r3, #24
 800354c:	ebb1 6f13 	cmp.w	r1, r3, lsr #24
 8003550:	d30c      	bcc.n	800356c <HAL_SD_ConfigWideBusOperation+0xd0>
 8003552:	9107      	str	r1, [sp, #28]
 8003554:	ab08      	add	r3, sp, #32
 8003556:	e913 0003 	ldmdb	r3, {r0, r1}
 800355a:	e88d 0003 	stmia.w	sp, {r0, r1}
 800355e:	ab03      	add	r3, sp, #12
 8003560:	cb0e      	ldmia	r3, {r1, r2, r3}
 8003562:	6820      	ldr	r0, [r4, #0]
 8003564:	f7ff f890 	bl	8002688 <SDMMC_Init>
 8003568:	2500      	movs	r5, #0
 800356a:	e7c8      	b.n	80034fe <HAL_SD_ConfigWideBusOperation+0x62>
 800356c:	6da3      	ldr	r3, [r4, #88]	; 0x58
 800356e:	f5b3 7f00 	cmp.w	r3, #512	; 0x200
 8003572:	d008      	beq.n	8003586 <HAL_SD_ConfigWideBusOperation+0xea>
 8003574:	f5b3 7f80 	cmp.w	r3, #256	; 0x100
 8003578:	d007      	beq.n	800358a <HAL_SD_ConfigWideBusOperation+0xee>
 800357a:	bb11      	cbnz	r1, 80035c2 <HAL_SD_ConfigWideBusOperation+0x126>
 800357c:	4b1b      	ldr	r3, [pc, #108]	; (80035ec <HAL_SD_ConfigWideBusOperation+0x150>)
 800357e:	429a      	cmp	r2, r3
 8003580:	d91d      	bls.n	80035be <HAL_SD_ConfigWideBusOperation+0x122>
 8003582:	9007      	str	r0, [sp, #28]
 8003584:	e7e6      	b.n	8003554 <HAL_SD_ConfigWideBusOperation+0xb8>
 8003586:	9107      	str	r1, [sp, #28]
 8003588:	e7e4      	b.n	8003554 <HAL_SD_ConfigWideBusOperation+0xb8>
 800358a:	b951      	cbnz	r1, 80035a2 <HAL_SD_ConfigWideBusOperation+0x106>
 800358c:	4b18      	ldr	r3, [pc, #96]	; (80035f0 <HAL_SD_ConfigWideBusOperation+0x154>)
 800358e:	429a      	cmp	r2, r3
 8003590:	d905      	bls.n	800359e <HAL_SD_ConfigWideBusOperation+0x102>
 8003592:	4b15      	ldr	r3, [pc, #84]	; (80035e8 <HAL_SD_ConfigWideBusOperation+0x14c>)
 8003594:	fba3 2302 	umull	r2, r3, r3, r2
 8003598:	0e5b      	lsrs	r3, r3, #25
 800359a:	9307      	str	r3, [sp, #28]
 800359c:	e7da      	b.n	8003554 <HAL_SD_ConfigWideBusOperation+0xb8>
 800359e:	9107      	str	r1, [sp, #28]
 80035a0:	e7d8      	b.n	8003554 <HAL_SD_ConfigWideBusOperation+0xb8>
 80035a2:	004b      	lsls	r3, r1, #1
 80035a4:	fbb2 f3f3 	udiv	r3, r2, r3
 80035a8:	4811      	ldr	r0, [pc, #68]	; (80035f0 <HAL_SD_ConfigWideBusOperation+0x154>)
 80035aa:	4283      	cmp	r3, r0
 80035ac:	d905      	bls.n	80035ba <HAL_SD_ConfigWideBusOperation+0x11e>
 80035ae:	4b0e      	ldr	r3, [pc, #56]	; (80035e8 <HAL_SD_ConfigWideBusOperation+0x14c>)
 80035b0:	fba3 2302 	umull	r2, r3, r3, r2
 80035b4:	0e5b      	lsrs	r3, r3, #25
 80035b6:	9307      	str	r3, [sp, #28]
 80035b8:	e7cc      	b.n	8003554 <HAL_SD_ConfigWideBusOperation+0xb8>
 80035ba:	9107      	str	r1, [sp, #28]
 80035bc:	e7ca      	b.n	8003554 <HAL_SD_ConfigWideBusOperation+0xb8>
 80035be:	9107      	str	r1, [sp, #28]
 80035c0:	e7c8      	b.n	8003554 <HAL_SD_ConfigWideBusOperation+0xb8>
 80035c2:	004b      	lsls	r3, r1, #1
 80035c4:	fbb2 f2f3 	udiv	r2, r2, r3
 80035c8:	4b08      	ldr	r3, [pc, #32]	; (80035ec <HAL_SD_ConfigWideBusOperation+0x150>)
 80035ca:	429a      	cmp	r2, r3
 80035cc:	d901      	bls.n	80035d2 <HAL_SD_ConfigWideBusOperation+0x136>
 80035ce:	9007      	str	r0, [sp, #28]
 80035d0:	e7c0      	b.n	8003554 <HAL_SD_ConfigWideBusOperation+0xb8>
 80035d2:	9107      	str	r1, [sp, #28]
 80035d4:	e7be      	b.n	8003554 <HAL_SD_ConfigWideBusOperation+0xb8>
 80035d6:	6b63      	ldr	r3, [r4, #52]	; 0x34
 80035d8:	f043 6300 	orr.w	r3, r3, #134217728	; 0x8000000
 80035dc:	6363      	str	r3, [r4, #52]	; 0x34
 80035de:	2501      	movs	r5, #1
 80035e0:	e78d      	b.n	80034fe <HAL_SD_ConfigWideBusOperation+0x62>
 80035e2:	bf00      	nop
 80035e4:	1fe00fff 	svcne	0x00e00fff
 80035e8:	55e63b89 	strbpl	r3, [r6, #2953]!	; 0xb89
 80035ec:	017d7840 	cmneq	sp, r0, asr #16
 80035f0:	02faf080 	rscseq	pc, sl, #128	; 0x80

080035f4 <HAL_SD_GetCardState>:
 80035f4:	b510      	push	{r4, lr}
 80035f6:	b082      	sub	sp, #8
 80035f8:	4604      	mov	r4, r0
 80035fa:	2300      	movs	r3, #0
 80035fc:	9301      	str	r3, [sp, #4]
 80035fe:	a901      	add	r1, sp, #4
 8003600:	f7ff fd0e 	bl	8003020 <SD_SendStatus>
 8003604:	b110      	cbz	r0, 800360c <HAL_SD_GetCardState+0x18>
 8003606:	6b63      	ldr	r3, [r4, #52]	; 0x34
 8003608:	4303      	orrs	r3, r0
 800360a:	6363      	str	r3, [r4, #52]	; 0x34
 800360c:	9801      	ldr	r0, [sp, #4]
 800360e:	f3c0 2043 	ubfx	r0, r0, #9, #4
 8003612:	b002      	add	sp, #8
 8003614:	bd10      	pop	{r4, pc}

08003616 <HAL_SD_Init>:
 8003616:	b570      	push	{r4, r5, r6, lr}
 8003618:	b086      	sub	sp, #24
 800361a:	2800      	cmp	r0, #0
 800361c:	d055      	beq.n	80036ca <HAL_SD_Init+0xb4>
 800361e:	4604      	mov	r4, r0
 8003620:	f890 3030 	ldrb.w	r3, [r0, #48]	; 0x30
 8003624:	b153      	cbz	r3, 800363c <HAL_SD_Init+0x26>
 8003626:	2304      	movs	r3, #4
 8003628:	f884 3030 	strb.w	r3, [r4, #48]	; 0x30
 800362c:	4620      	mov	r0, r4
 800362e:	f7ff fe67 	bl	8003300 <HAL_SD_InitCard>
 8003632:	b138      	cbz	r0, 8003644 <HAL_SD_Init+0x2e>
 8003634:	2501      	movs	r5, #1
 8003636:	4628      	mov	r0, r5
 8003638:	b006      	add	sp, #24
 800363a:	bd70      	pop	{r4, r5, r6, pc}
 800363c:	7603      	strb	r3, [r0, #24]
 800363e:	f7fd f87f 	bl	8000740 <HAL_SD_MspInit>
 8003642:	e7f0      	b.n	8003626 <HAL_SD_Init+0x10>
 8003644:	a901      	add	r1, sp, #4
 8003646:	4620      	mov	r0, r4
 8003648:	f7ff fec0 	bl	80033cc <HAL_SD_GetCardStatus>
 800364c:	2800      	cmp	r0, #0
 800364e:	d13e      	bne.n	80036ce <HAL_SD_Init+0xb8>
 8003650:	f89d 3014 	ldrb.w	r3, [sp, #20]
 8003654:	b2db      	uxtb	r3, r3
 8003656:	f89d 2015 	ldrb.w	r2, [sp, #21]
 800365a:	b2d2      	uxtb	r2, r2
 800365c:	6ba1      	ldr	r1, [r4, #56]	; 0x38
 800365e:	2901      	cmp	r1, #1
 8003660:	d00b      	beq.n	800367a <HAL_SD_Init+0x64>
 8003662:	2901      	cmp	r1, #1
 8003664:	d010      	beq.n	8003688 <HAL_SD_Init+0x72>
 8003666:	2300      	movs	r3, #0
 8003668:	65a3      	str	r3, [r4, #88]	; 0x58
 800366a:	68e1      	ldr	r1, [r4, #12]
 800366c:	4620      	mov	r0, r4
 800366e:	f7ff ff15 	bl	800349c <HAL_SD_ConfigWideBusOperation>
 8003672:	4605      	mov	r5, r0
 8003674:	b160      	cbz	r0, 8003690 <HAL_SD_Init+0x7a>
 8003676:	2501      	movs	r5, #1
 8003678:	e7dd      	b.n	8003636 <HAL_SD_Init+0x20>
 800367a:	b90b      	cbnz	r3, 8003680 <HAL_SD_Init+0x6a>
 800367c:	2a00      	cmp	r2, #0
 800367e:	d0f0      	beq.n	8003662 <HAL_SD_Init+0x4c>
 8003680:	f44f 7300 	mov.w	r3, #512	; 0x200
 8003684:	65a3      	str	r3, [r4, #88]	; 0x58
 8003686:	e7f0      	b.n	800366a <HAL_SD_Init+0x54>
 8003688:	f44f 7380 	mov.w	r3, #256	; 0x100
 800368c:	65a3      	str	r3, [r4, #88]	; 0x58
 800368e:	e7ec      	b.n	800366a <HAL_SD_Init+0x54>
 8003690:	f7fd f9f2 	bl	8000a78 <HAL_GetTick>
 8003694:	4606      	mov	r6, r0
 8003696:	4620      	mov	r0, r4
 8003698:	f7ff ffac 	bl	80035f4 <HAL_SD_GetCardState>
 800369c:	2804      	cmp	r0, #4
 800369e:	d00d      	beq.n	80036bc <HAL_SD_Init+0xa6>
 80036a0:	f7fd f9ea 	bl	8000a78 <HAL_GetTick>
 80036a4:	1b80      	subs	r0, r0, r6
 80036a6:	f1b0 3fff 	cmp.w	r0, #4294967295	; 0xffffffff
